
========================================================================

** ELF Header Information

    File Name: .\obj\NM1240_1R_2R_6stp_Hall_FOC.axf

    Machine class: ELFCLASS32 (32-bit)
    Data encoding: ELFDATA2LSB (Little endian)
    Header version: EV_CURRENT (Current version)
    Operating System ABI: none
    ABI Version: 0
    File Type: ET_EXEC (Executable) (2)
    Machine: EM_ARM (ARM)

    Image Entry point: 0x000000f1
    Flags: EF_ARM_HASENTRY + EF_ARM_ABI_FLOAT_SOFT (0x05000202)

    ARM ELF revision: 5 (ABI version 2)

    Conforms to Soft float procedure-call standard

    Built with
    ARM C/C++ Compiler, 5.03 [Build 76]
    ARM Assembler, 5.03 [Build 76]
    ARM Linker, 5.03 [Build 76] 
    Component: Arm Compiler for Embedded 6.24 Tool: armasm [5f371400]
    Component: Arm Compiler for Embedded 6.24 Tool: armlink [5f371500]

    Header size: 52 bytes (0x34)
    Program header entry size: 32 bytes (0x20)
    Section header entry size: 40 bytes (0x28)

    Program header entries: 1
    Section header entries: 18

    Program header offset: 155952 (0x00026130)
    Section header offset: 155984 (0x00026150)

    Section header string table index: 17

========================================================================

** Program header #0 (PT_LOAD) [PF_X + PF_W + PF_R + PF_ARM_ENTRY]
    Size : 19224 bytes (17744 bytes in file)
    Virtual address: 0x00000000 (Alignment 8)


========================================================================

** Section #1 'ER_RO' (SHT_PROGBITS) [SHF_ALLOC + SHF_EXECINSTR]
    Size   : 17640 bytes (alignment 4)
    Address: 0x00000000

    $d.realdata
    RESET
    __Vectors
        0x00000000:    20000630    0..     DCD    536872496
        0x00000004:    000000f1    ....    DCD    241
        0x00000008:    00000111    ....    DCD    273
        0x0000000c:    000000d5    ....    DCD    213
        0x00000010:    00000000    ....    DCD    0
        0x00000014:    00000000    ....    DCD    0
        0x00000018:    00000000    ....    DCD    0
        0x0000001c:    00000000    ....    DCD    0
        0x00000020:    00000000    ....    DCD    0
        0x00000024:    00000000    ....    DCD    0
        0x00000028:    00000000    ....    DCD    0
        0x0000002c:    00000115    ....    DCD    277
        0x00000030:    00000000    ....    DCD    0
        0x00000034:    00000000    ....    DCD    0
        0x00000038:    00000117    ....    DCD    279
        0x0000003c:    00000119    ....    DCD    281
        0x00000040:    0000011b    ....    DCD    283
        0x00000044:    0000011b    ....    DCD    283
        0x00000048:    0000011b    ....    DCD    283
        0x0000004c:    0000011b    ....    DCD    283
        0x00000050:    0000011b    ....    DCD    283
        0x00000054:    00000a91    ....    DCD    2705
        0x00000058:    000003d5    ....    DCD    981
        0x0000005c:    0000011b    ....    DCD    283
        0x00000060:    0000011b    ....    DCD    283
        0x00000064:    0000011b    ....    DCD    283
        0x00000068:    0000011b    ....    DCD    283
        0x0000006c:    0000011b    ....    DCD    283
        0x00000070:    0000011b    ....    DCD    283
        0x00000074:    0000011b    ....    DCD    283
        0x00000078:    0000011b    ....    DCD    283
        0x0000007c:    000007d5    ....    DCD    2005
        0x00000080:    0000011b    ....    DCD    283
        0x00000084:    0000011b    ....    DCD    283
        0x00000088:    0000011b    ....    DCD    283
        0x0000008c:    00000d19    ....    DCD    3353
        0x00000090:    00000d3d    =...    DCD    3389
        0x00000094:    0000011b    ....    DCD    283
        0x00000098:    00002375    u#..    DCD    9077
        0x0000009c:    0000011b    ....    DCD    283
        0x000000a0:    0000011b    ....    DCD    283
        0x000000a4:    0000011b    ....    DCD    283
        0x000000a8:    0000011b    ....    DCD    283
        0x000000ac:    0000011b    ....    DCD    283
        0x000000b0:    0000011b    ....    DCD    283
        0x000000b4:    00000299    ....    DCD    665
        0x000000b8:    0000011b    ....    DCD    283
        0x000000bc:    0000011b    ....    DCD    283
    $t
    .ARM.Collect$$$$00000000
    .ARM.Collect$$$$00000001
    __main
    _main_stk
        0x000000c0:    4803        .H      LDR      r0,__lit__00000000 ; [0xd0] = 0x20000630
        0x000000c2:    4685        .F      MOV      sp,r0
    .ARM.Collect$$$$00000004
    _main_scatterload
        0x000000c4:    f000f8ae    ....    BL       __scatterload ; 0x224
    .ARM.Collect$$$$00000008
    .ARM.Collect$$$$0000000A
    .ARM.Collect$$$$0000000B
    __main_after_scatterload
    _main_clock
    _main_cpp_init
    _main_init
        0x000000c8:    4800        .H      LDR      r0,[pc,#0] ; [0xcc] = 0x2b65
        0x000000ca:    4700        .G      BX       r0
    $d
        0x000000cc:    00002b65    e+..    DCD    11109
    .ARM.Collect$$$$00002712
    __lit__00000000
    .ARM.Collect$$$$0000000D
    .ARM.Collect$$$$0000000F
    __rt_final_cpp
    __rt_final_exit
        0x000000d0:    20000630    0..     DCD    536872496
    $t
    .emb_text
    HardFault_Handler
        0x000000d4:    2004        .       MOVS     r0,#4
        0x000000d6:    4671        qF      MOV      r1,lr
        0x000000d8:    4208        .B      TST      r0,r1
        0x000000da:    d002        ..      BEQ      0xe2 ; HardFault_Handler + 14
        0x000000dc:    f3ef8009    ....    MRS      r0,PSP
        0x000000e0:    e001        ..      B        0xe6 ; HardFault_Handler + 18
        0x000000e2:    f3ef8008    ....    MRS      r0,MSP
        0x000000e6:    4671        qF      MOV      r1,lr
        0x000000e8:    4a00        .J      LDR      r2,[pc,#0] ; [0xec] = 0x2ff9
        0x000000ea:    4710        .G      BX       r2
    $d
        0x000000ec:    00002ff9    ./..    DCD    12281
    $t
    .text
    Reset_Handler
        0x000000f0:    480a        .H      LDR      r0,[pc,#40] ; [0x11c] = 0x50000100
        0x000000f2:    490b        .I      LDR      r1,[pc,#44] ; [0x120] = 0x59
        0x000000f4:    6001        .`      STR      r1,[r0,#0]
        0x000000f6:    490b        .I      LDR      r1,[pc,#44] ; [0x124] = 0x16
        0x000000f8:    6001        .`      STR      r1,[r0,#0]
        0x000000fa:    490b        .I      LDR      r1,[pc,#44] ; [0x128] = 0x88
        0x000000fc:    6001        .`      STR      r1,[r0,#0]
        0x000000fe:    4a0b        .J      LDR      r2,[pc,#44] ; [0x12c] = 0x50000024
        0x00000100:    490b        .I      LDR      r1,[pc,#44] ; [0x130] = 0x5aa5
        0x00000102:    6011        .`      STR      r1,[r2,#0]
        0x00000104:    2100        .!      MOVS     r1,#0
        0x00000106:    6001        .`      STR      r1,[r0,#0]
        0x00000108:    480a        .H      LDR      r0,[pc,#40] ; [0x134] = 0x2371
        0x0000010a:    4780        .G      BLX      r0
        0x0000010c:    480a        .H      LDR      r0,[pc,#40] ; [0x138] = 0xc1
        0x0000010e:    4700        .G      BX       r0
    NMI_Handler
        0x00000110:    e7fe        ..      B        NMI_Handler ; 0x110
        0x00000112:    e7fe        ..      B        0x112 ; NMI_Handler + 2
    SVC_Handler
        0x00000114:    e7fe        ..      B        SVC_Handler ; 0x114
    PendSV_Handler
        0x00000116:    e7fe        ..      B        PendSV_Handler ; 0x116
    SysTick_Handler
        0x00000118:    e7fe        ..      B        SysTick_Handler ; 0x118
    Default_Handler
    TMR2_IRQHandler
    ACMP_IRQHandler
    ADC1_IRQHandler
    BOD_IRQHandler
    BPWM0_IRQHandler
    BPWM1_IRQHandler
    BRAKE1_IRQHandler
    CCAP_IRQHandler
    GPIO_IRQHandler
    HIRCTRIM_IRQHandler
    PWRWU_IRQHandler
    TMR1_IRQHandler
    USCI1_IRQHandler
    USCI2_IRQHandler
    WDT_IRQHandler
        0x0000011a:    e7fe        ..      B        Default_Handler ; 0x11a
    $d
        0x0000011c:    50000100    ...P    DCD    1342177536
        0x00000120:    00000059    Y...    DCD    89
        0x00000124:    00000016    ....    DCD    22
        0x00000128:    00000088    ....    DCD    136
        0x0000012c:    50000024    $..P    DCD    1342177316
        0x00000130:    00005aa5    .Z..    DCD    23205
        0x00000134:    00002371    q#..    DCD    9073
        0x00000138:    000000c1    ....    DCD    193
    $t
    .text
    __aeabi_memcpy
    __aeabi_memcpy4
    __aeabi_memcpy8
        0x0000013c:    4603        .F      MOV      r3,r0
        0x0000013e:    430b        .C      ORRS     r3,r3,r1
        0x00000140:    079b        ..      LSLS     r3,r3,#30
        0x00000142:    d003        ..      BEQ      0x14c ; __aeabi_memcpy + 16
        0x00000144:    e009        ..      B        0x15a ; __aeabi_memcpy + 30
        0x00000146:    c908        ..      LDM      r1!,{r3}
        0x00000148:    1f12        ..      SUBS     r2,r2,#4
        0x0000014a:    c008        ..      STM      r0!,{r3}
        0x0000014c:    2a04        .*      CMP      r2,#4
        0x0000014e:    d2fa        ..      BCS      0x146 ; __aeabi_memcpy + 10
        0x00000150:    e003        ..      B        0x15a ; __aeabi_memcpy + 30
        0x00000152:    780b        .x      LDRB     r3,[r1,#0]
        0x00000154:    7003        .p      STRB     r3,[r0,#0]
        0x00000156:    1c40        @.      ADDS     r0,r0,#1
        0x00000158:    1c49        I.      ADDS     r1,r1,#1
        0x0000015a:    1e52        R.      SUBS     r2,r2,#1
        0x0000015c:    d2f9        ..      BCS      0x152 ; __aeabi_memcpy + 22
        0x0000015e:    4770        pG      BX       lr
    .text
    __aeabi_memset
    __aeabi_memset4
    __aeabi_memset8
        0x00000160:    b2d2        ..      UXTB     r2,r2
        0x00000162:    e001        ..      B        0x168 ; __aeabi_memset + 8
        0x00000164:    7002        .p      STRB     r2,[r0,#0]
        0x00000166:    1c40        @.      ADDS     r0,r0,#1
        0x00000168:    1e49        I.      SUBS     r1,r1,#1
        0x0000016a:    d2fb        ..      BCS      0x164 ; __aeabi_memset + 4
        0x0000016c:    4770        pG      BX       lr
    __aeabi_memclr
    __aeabi_memclr4
    __aeabi_memclr8
        0x0000016e:    2200        ."      MOVS     r2,#0
        0x00000170:    e7f6        ..      B        __aeabi_memset ; 0x160
    _memset$wrapper
        0x00000172:    b510        ..      PUSH     {r4,lr}
        0x00000174:    4613        .F      MOV      r3,r2
        0x00000176:    460a        .F      MOV      r2,r1
        0x00000178:    4604        .F      MOV      r4,r0
        0x0000017a:    4619        .F      MOV      r1,r3
        0x0000017c:    f7fffff0    ....    BL       __aeabi_memset ; 0x160
        0x00000180:    4620         F      MOV      r0,r4
        0x00000182:    bd10        ..      POP      {r4,pc}
    .text
    __aeabi_uidiv
    __aeabi_uidivmod
        0x00000184:    b570        p.      PUSH     {r4-r6,lr}
        0x00000186:    4604        .F      MOV      r4,r0
        0x00000188:    2900        .)      CMP      r1,#0
        0x0000018a:    d003        ..      BEQ      0x194 ; __aeabi_uidiv + 16
        0x0000018c:    2000        .       MOVS     r0,#0
        0x0000018e:    2220         "      MOVS     r2,#0x20
        0x00000190:    2301        .#      MOVS     r3,#1
        0x00000192:    e010        ..      B        0x1b6 ; __aeabi_uidiv + 50
        0x00000194:    2800        .(      CMP      r0,#0
        0x00000196:    d001        ..      BEQ      0x19c ; __aeabi_uidiv + 24
        0x00000198:    2000        .       MOVS     r0,#0
        0x0000019a:    43c0        .C      MVNS     r0,r0
        0x0000019c:    46c0        .F      MOV      r8,r8
        0x0000019e:    46c0        .F      MOV      r8,r8
        0x000001a0:    e00d        ..      B        0x1be ; __aeabi_uidiv + 58
        0x000001a2:    4625        %F      MOV      r5,r4
        0x000001a4:    40d5        .@      LSRS     r5,r5,r2
        0x000001a6:    428d        .B      CMP      r5,r1
        0x000001a8:    d305        ..      BCC      0x1b6 ; __aeabi_uidiv + 50
        0x000001aa:    460d        .F      MOV      r5,r1
        0x000001ac:    4095        .@      LSLS     r5,r5,r2
        0x000001ae:    1b64        d.      SUBS     r4,r4,r5
        0x000001b0:    461d        .F      MOV      r5,r3
        0x000001b2:    4095        .@      LSLS     r5,r5,r2
        0x000001b4:    1940        @.      ADDS     r0,r0,r5
        0x000001b6:    4615        .F      MOV      r5,r2
        0x000001b8:    1e52        R.      SUBS     r2,r2,#1
        0x000001ba:    2d00        .-      CMP      r5,#0
        0x000001bc:    dcf1        ..      BGT      0x1a2 ; __aeabi_uidiv + 30
        0x000001be:    4621        !F      MOV      r1,r4
        0x000001c0:    bd70        p.      POP      {r4-r6,pc}
    .text
    __aeabi_uldivmod
        0x000001c2:    b5f0        ..      PUSH     {r4-r7,lr}
        0x000001c4:    b41f        ..      PUSH     {r0-r4}
        0x000001c6:    4606        .F      MOV      r6,r0
        0x000001c8:    2000        .       MOVS     r0,#0
        0x000001ca:    b082        ..      SUB      sp,sp,#8
        0x000001cc:    4605        .F      MOV      r5,r0
        0x000001ce:    2440        @$      MOVS     r4,#0x40
        0x000001d0:    9101        ..      STR      r1,[sp,#4]
        0x000001d2:    9000        ..      STR      r0,[sp,#0]
        0x000001d4:    e01b        ..      B        0x20e ; __aeabi_uldivmod + 76
        0x000001d6:    9901        ..      LDR      r1,[sp,#4]
        0x000001d8:    4622        "F      MOV      r2,r4
        0x000001da:    460f        .F      MOV      r7,r1
        0x000001dc:    4630        0F      MOV      r0,r6
        0x000001de:    f000f849    ..I.    BL       __aeabi_llsr ; 0x274
        0x000001e2:    9a04        ..      LDR      r2,[sp,#0x10]
        0x000001e4:    9b05        ..      LDR      r3,[sp,#0x14]
        0x000001e6:    1a80        ..      SUBS     r0,r0,r2
        0x000001e8:    4199        .A      SBCS     r1,r1,r3
        0x000001ea:    d310        ..      BCC      0x20e ; __aeabi_uldivmod + 76
        0x000001ec:    4610        .F      MOV      r0,r2
        0x000001ee:    4619        .F      MOV      r1,r3
        0x000001f0:    4622        "F      MOV      r2,r4
        0x000001f2:    f000f82f    ../.    BL       __aeabi_llsl ; 0x254
        0x000001f6:    1a36        6.      SUBS     r6,r6,r0
        0x000001f8:    418f        .A      SBCS     r7,r7,r1
        0x000001fa:    9701        ..      STR      r7,[sp,#4]
        0x000001fc:    4622        "F      MOV      r2,r4
        0x000001fe:    2001        .       MOVS     r0,#1
        0x00000200:    2100        .!      MOVS     r1,#0
        0x00000202:    9f00        ..      LDR      r7,[sp,#0]
        0x00000204:    f000f826    ..&.    BL       __aeabi_llsl ; 0x254
        0x00000208:    1838        8.      ADDS     r0,r7,r0
        0x0000020a:    414d        MA      ADCS     r5,r5,r1
        0x0000020c:    9000        ..      STR      r0,[sp,#0]
        0x0000020e:    4620         F      MOV      r0,r4
        0x00000210:    1e64        d.      SUBS     r4,r4,#1
        0x00000212:    2800        .(      CMP      r0,#0
        0x00000214:    dcdf        ..      BGT      0x1d6 ; __aeabi_uldivmod + 20
        0x00000216:    9b01        ..      LDR      r3,[sp,#4]
        0x00000218:    9800        ..      LDR      r0,[sp,#0]
        0x0000021a:    4629        )F      MOV      r1,r5
        0x0000021c:    4632        2F      MOV      r2,r6
        0x0000021e:    b007        ..      ADD      sp,sp,#0x1c
        0x00000220:    bdf0        ..      POP      {r4-r7,pc}
        0x00000222:    0000        ..      MOVS     r0,r0
    .text
    __scatterload
    __scatterload_rt2
        0x00000224:    b51c        ..      PUSH     {r2-r4,lr}
        0x00000226:    4809        .H      LDR      r0,[pc,#36] ; [0x24c] = 0x44c8
        0x00000228:    9000        ..      STR      r0,[sp,#0]
        0x0000022a:    4809        .H      LDR      r0,[pc,#36] ; [0x250] = 0x44e8
        0x0000022c:    9001        ..      STR      r0,[sp,#4]
        0x0000022e:    4605        .F      MOV      r5,r0
        0x00000230:    2601        .&      MOVS     r6,#1
        0x00000232:    9c00        ..      LDR      r4,[sp,#0]
        0x00000234:    e005        ..      B        0x242 ; __scatterload + 30
        0x00000236:    68e3        .h      LDR      r3,[r4,#0xc]
        0x00000238:    cc07        ..      LDM      r4!,{r0-r2}
        0x0000023a:    4333        3C      ORRS     r3,r3,r6
        0x0000023c:    3c0c        .<      SUBS     r4,r4,#0xc
        0x0000023e:    4798        .G      BLX      r3
        0x00000240:    3410        .4      ADDS     r4,r4,#0x10
        0x00000242:    42ac        .B      CMP      r4,r5
        0x00000244:    d3f7        ..      BCC      0x236 ; __scatterload + 18
        0x00000246:    f7ffff3f    ..?.    BL       __main_after_scatterload ; 0xc8
    $d
        0x0000024a:    0000        ..      DCW    0
        0x0000024c:    000044c8    .D..    DCD    17608
        0x00000250:    000044e8    .D..    DCD    17640
    $t
    .text
    __aeabi_llsl
    _ll_shift_l
        0x00000254:    b510        ..      PUSH     {r4,lr}
        0x00000256:    2a20         *      CMP      r2,#0x20
        0x00000258:    db04        ..      BLT      0x264 ; __aeabi_llsl + 16
        0x0000025a:    4601        .F      MOV      r1,r0
        0x0000025c:    3a20         :      SUBS     r2,r2,#0x20
        0x0000025e:    4091        .@      LSLS     r1,r1,r2
        0x00000260:    2000        .       MOVS     r0,#0
        0x00000262:    bd10        ..      POP      {r4,pc}
        0x00000264:    4091        .@      LSLS     r1,r1,r2
        0x00000266:    2320         #      MOVS     r3,#0x20
        0x00000268:    1a9c        ..      SUBS     r4,r3,r2
        0x0000026a:    4603        .F      MOV      r3,r0
        0x0000026c:    40e3        .@      LSRS     r3,r3,r4
        0x0000026e:    4319        .C      ORRS     r1,r1,r3
        0x00000270:    4090        .@      LSLS     r0,r0,r2
        0x00000272:    bd10        ..      POP      {r4,pc}
    .text
    __aeabi_llsr
    _ll_ushift_r
        0x00000274:    b510        ..      PUSH     {r4,lr}
        0x00000276:    2a20         *      CMP      r2,#0x20
        0x00000278:    db04        ..      BLT      0x284 ; __aeabi_llsr + 16
        0x0000027a:    4608        .F      MOV      r0,r1
        0x0000027c:    3a20         :      SUBS     r2,r2,#0x20
        0x0000027e:    40d0        .@      LSRS     r0,r0,r2
        0x00000280:    2100        .!      MOVS     r1,#0
        0x00000282:    bd10        ..      POP      {r4,pc}
        0x00000284:    460b        .F      MOV      r3,r1
        0x00000286:    40d3        .@      LSRS     r3,r3,r2
        0x00000288:    40d0        .@      LSRS     r0,r0,r2
        0x0000028a:    2420         $      MOVS     r4,#0x20
        0x0000028c:    1aa2        ..      SUBS     r2,r4,r2
        0x0000028e:    4091        .@      LSLS     r1,r1,r2
        0x00000290:    4308        .C      ORRS     r0,r0,r1
        0x00000292:    4619        .F      MOV      r1,r3
        0x00000294:    bd10        ..      POP      {r4,pc}
        0x00000296:    0000        ..      MOVS     r0,r0
    ADC0_IRQHandler
        0x00000298:    b5f0        ..      PUSH     {r4-r7,lr}
        0x0000029a:    b083        ..      SUB      sp,sp,#0xc
        0x0000029c:    2038        8       MOVS     r0,#0x38
        0x0000029e:    4cd6        .L      LDR      r4,[pc,#856] ; [0x5f8] = 0x200000b4
        0x000002a0:    5e20         ^      LDRSH    r0,[r4,r0]
        0x000002a2:    216c        l!      MOVS     r1,#0x6c
        0x000002a4:    5260        `R      STRH     r0,[r4,r1]
        0x000002a6:    4d40        @M      LDR      r5,[pc,#256] ; [0x3a8] = 0x400e0020
        0x000002a8:    2101        .!      MOVS     r1,#1
        0x000002aa:    6129        )a      STR      r1,[r5,#0x10]
        0x000002ac:    4a3f        ?J      LDR      r2,[pc,#252] ; [0x3ac] = 0x400e00c4
        0x000002ae:    6812        .h      LDR      r2,[r2,#0]
        0x000002b0:    8e23        #.      LDRH     r3,[r4,#0x30]
        0x000002b2:    6eed        .n      LDR      r5,[r5,#0x6c]
        0x000002b4:    1b5b        [.      SUBS     r3,r3,r5
        0x000002b6:    011b        ..      LSLS     r3,r3,#4
        0x000002b8:    83e3        ..      STRH     r3,[r4,#0x1e]
        0x000002ba:    8de5        ..      LDRH     r5,[r4,#0x2e]
        0x000002bc:    1b52        R.      SUBS     r2,r2,r5
        0x000002be:    0112        ..      LSLS     r2,r2,#4
        0x000002c0:    4255        UB      RSBS     r5,r2,#0
        0x000002c2:    83a5        ..      STRH     r5,[r4,#0x1c]
        0x000002c4:    1ad2        ..      SUBS     r2,r2,r3
        0x000002c6:    8422        ".      STRH     r2,[r4,#0x20]
        0x000002c8:    4a3a        :J      LDR      r2,[pc,#232] ; [0x3b4] = 0x3ff
        0x000002ca:    4290        .B      CMP      r0,r2
        0x000002cc:    dc01        ..      BGT      0x2d2 ; ADC0_IRQHandler + 58
        0x000002ce:    4603        .F      MOV      r3,r0
        0x000002d0:    e001        ..      B        0x2d6 ; ADC0_IRQHandler + 62
        0x000002d2:    4b37        7K      LDR      r3,[pc,#220] ; [0x3b0] = 0xfffffc00
        0x000002d4:    18c3        ..      ADDS     r3,r0,r3
        0x000002d6:    b21b        ..      SXTH     r3,r3
        0x000002d8:    005d        ].      LSLS     r5,r3,#1
        0x000002da:    4b37        7K      LDR      r3,[pc,#220] ; [0x3b8] = 0x3cc8
        0x000002dc:    5f5d        ]_      LDRSH    r5,[r3,r5]
        0x000002de:    63e5        .c      STR      r5,[r4,#0x3c]
        0x000002e0:    0209        ..      LSLS     r1,r1,#8
        0x000002e2:    1841        A.      ADDS     r1,r0,r1
        0x000002e4:    b20e        ..      SXTH     r6,r1
        0x000002e6:    4296        .B      CMP      r6,r2
        0x000002e8:    dd01        ..      BLE      0x2ee ; ADC0_IRQHandler + 86
        0x000002ea:    4934        4I      LDR      r1,[pc,#208] ; [0x3bc] = 0xfffffd00
        0x000002ec:    1841        A.      ADDS     r1,r0,r1
        0x000002ee:    b208        ..      SXTH     r0,r1
        0x000002f0:    0040        @.      LSLS     r0,r0,#1
        0x000002f2:    5e1e        .^      LDRSH    r6,[r3,r0]
        0x000002f4:    6426        &d      STR      r6,[r4,#0x40]
        0x000002f6:    4620         F      MOV      r0,r4
        0x000002f8:    4629        )F      MOV      r1,r5
        0x000002fa:    4632        2F      MOV      r2,r6
        0x000002fc:    f002fab2    ....    BL       _Iuvw_to_Idq ; 0x2864
        0x00000300:    2050        P       MOVS     r0,#0x50
        0x00000302:    5a20         Z      LDRH     r0,[r4,r0]
        0x00000304:    8ce1        ..      LDRH     r1,[r4,#0x26]
        0x00000306:    1a40        @.      SUBS     r0,r0,r1
        0x00000308:    8560        `.      STRH     r0,[r4,#0x2a]
        0x0000030a:    492d        -I      LDR      r1,[pc,#180] ; [0x3c0] = 0x2000002c
        0x0000030c:    2700        .'      MOVS     r7,#0
        0x0000030e:    4620         F      MOV      r0,r4
        0x00000310:    463a        :F      MOV      r2,r7
        0x00000312:    f001fb42    ..B.    BL       PI_Id_current ; 0x199a
        0x00000316:    2154        T!      MOVS     r1,#0x54
        0x00000318:    5260        `R      STRH     r0,[r4,r1]
        0x0000031a:    2052        R       MOVS     r0,#0x52
        0x0000031c:    5a20         Z      LDRH     r0,[r4,r0]
        0x0000031e:    8d21        !.      LDRH     r1,[r4,#0x28]
        0x00000320:    1a40        @.      SUBS     r0,r0,r1
        0x00000322:    85a0        ..      STRH     r0,[r4,#0x2c]
        0x00000324:    4927        'I      LDR      r1,[pc,#156] ; [0x3c4] = 0x2000003c
        0x00000326:    4620         F      MOV      r0,r4
        0x00000328:    463a        :F      MOV      r2,r7
        0x0000032a:    f001fb5e    ..^.    BL       PI_Iq_current ; 0x19ea
        0x0000032e:    2156        V!      MOVS     r1,#0x56
        0x00000330:    5260        `R      STRH     r0,[r4,r1]
        0x00000332:    9500        ..      STR      r5,[sp,#0]
        0x00000334:    9601        ..      STR      r6,[sp,#4]
        0x00000336:    4b24        $K      LDR      r3,[pc,#144] ; [0x3c8] = 0x74e
        0x00000338:    461a        .F      MOV      r2,r3
        0x0000033a:    3282        .2      ADDS     r2,r2,#0x82
        0x0000033c:    4923        #I      LDR      r1,[pc,#140] ; [0x3cc] = 0x40040000
        0x0000033e:    4620         F      MOV      r0,r4
        0x00000340:    f002fa58    ..X.    BL       Vdq_to_SVPWM_2R ; 0x27f4
        0x00000344:    20a4        .       MOVS     r0,#0xa4
        0x00000346:    5821        !X      LDR      r1,[r4,r0]
        0x00000348:    22b4        ."      MOVS     r2,#0xb4
        0x0000034a:    5ca2        .\      LDRB     r2,[r4,r2]
        0x0000034c:    2a02        .*      CMP      r2,#2
        0x0000034e:    d10e        ..      BNE      0x36e ; ADC0_IRQHandler + 214
        0x00000350:    22a0        ."      MOVS     r2,#0xa0
        0x00000352:    58a2        .X      LDR      r2,[r4,r2]
        0x00000354:    1851        Q.      ADDS     r1,r2,r1
        0x00000356:    4a1e        .J      LDR      r2,[pc,#120] ; [0x3d0] = 0x3ffffff
        0x00000358:    4291        .B      CMP      r1,r2
        0x0000035a:    dc03        ..      BGT      0x364 ; ADC0_IRQHandler + 204
        0x0000035c:    094b        K.      LSRS     r3,r1,#5
        0x0000035e:    1c52        R.      ADDS     r2,r2,#1
        0x00000360:    401a        .@      ANDS     r2,r2,r3
        0x00000362:    e001        ..      B        0x368 ; ADC0_IRQHandler + 208
        0x00000364:    223f        ?"      MOVS     r2,#0x3f
        0x00000366:    0692        ..      LSLS     r2,r2,#26
        0x00000368:    1851        Q.      ADDS     r1,r2,r1
        0x0000036a:    0c0a        ..      LSRS     r2,r1,#16
        0x0000036c:    8722        ".      STRH     r2,[r4,#0x38]
        0x0000036e:    5021        !P      STR      r1,[r4,r0]
        0x00000370:    4e0d        .N      LDR      r6,[pc,#52] ; [0x3a8] = 0x400e0020
        0x00000372:    6830        0h      LDR      r0,[r6,#0]
        0x00000374:    2502        .%      MOVS     r5,#2
        0x00000376:    43a8        .C      BICS     r0,r0,r5
        0x00000378:    6030        0`      STR      r0,[r6,#0]
        0x0000037a:    f001febf    ....    BL       SW_Trg_ADC1_P7_Return_Reslut ; 0x20fc
        0x0000037e:    21bc        .!      MOVS     r1,#0xbc
        0x00000380:    5260        `R      STRH     r0,[r4,r1]
        0x00000382:    f001fe97    ....    BL       SW_Trg_ADC0_P4_Return_Reslut ; 0x20b4
        0x00000386:    2148        H!      MOVS     r1,#0x48
        0x00000388:    5260        `R      STRH     r0,[r4,r1]
        0x0000038a:    6830        0h      LDR      r0,[r6,#0]
        0x0000038c:    4328        (C      ORRS     r0,r0,r5
        0x0000038e:    6030        0`      STR      r0,[r6,#0]
        0x00000390:    f001fef8    ....    BL       Set_ADC1_P1_ADC0_P3_Simu_HW_Trg_by_PWM0Period ; 0x2184
        0x00000394:    2034        4       MOVS     r0,#0x34
        0x00000396:    5e20         ^      LDRSH    r0,[r4,r0]
        0x00000398:    21c8        .!      MOVS     r1,#0xc8
        0x0000039a:    f002f899    ....    BL       TX_data_to_PC ; 0x24d0
        0x0000039e:    f000f97f    ....    BL       DAC_Output_M0 ; 0x6a0
        0x000003a2:    b003        ..      ADD      sp,sp,#0xc
        0x000003a4:    bdf0        ..      POP      {r4-r7,pc}
        0x000003a6:    46c0        .F      MOV      r8,r8
    $d
    __arm_cp.1_1
        0x000003a8:    400e0020     ..@    DCD    1074659360
    __arm_cp.1_2
        0x000003ac:    400e00c4    ...@    DCD    1074659524
    __arm_cp.1_3
        0x000003b0:    fffffc00    ....    DCD    4294966272
    __arm_cp.1_4
        0x000003b4:    000003ff    ....    DCD    1023
    __arm_cp.1_5
        0x000003b8:    00003cc8    .<..    DCD    15560
    __arm_cp.1_6
        0x000003bc:    fffffd00    ....    DCD    4294966528
    __arm_cp.1_7
        0x000003c0:    2000002c    ,..     DCD    536870956
    __arm_cp.1_8
        0x000003c4:    2000003c    <..     DCD    536870972
    __arm_cp.1_9
        0x000003c8:    0000074e    N...    DCD    1870
    __arm_cp.1_10
        0x000003cc:    40040000    ...@    DCD    1074003968
    __arm_cp.1_11
        0x000003d0:    03ffffff    ....    DCD    67108863
    $t
    BRAKE0_IRQHandler
        0x000003d4:    b580        ..      PUSH     {r7,lr}
        0x000003d6:    20c0        .       MOVS     r0,#0xc0
        0x000003d8:    f001fef8    ....    BL       Set_EPWM_MASK_Enable ; 0x21cc
        0x000003dc:    20b6        .       MOVS     r0,#0xb6
        0x000003de:    49f6        .I      LDR      r1,[pc,#984] ; [0x7b8] = 0x200000b4
        0x000003e0:    2200        ."      MOVS     r2,#0
        0x000003e2:    540a        .T      STRB     r2,[r1,r0]
        0x000003e4:    22b7        ."      MOVS     r2,#0xb7
        0x000003e6:    5c8b        .\      LDRB     r3,[r1,r2]
        0x000003e8:    2001        .       MOVS     r0,#1
        0x000003ea:    4303        .C      ORRS     r3,r3,r0
        0x000003ec:    548b        .T      STRB     r3,[r1,r2]
        0x000003ee:    0401        ..      LSLS     r1,r0,#16
        0x000003f0:    4a07        .J      LDR      r2,[pc,#28] ; [0x410] = 0x40040058
        0x000003f2:    6011        .`      STR      r1,[r2,#0]
        0x000003f4:    04c1        ..      LSLS     r1,r0,#19
        0x000003f6:    6813        .h      LDR      r3,[r2,#0]
        0x000003f8:    430b        .C      ORRS     r3,r3,r1
        0x000003fa:    6013        .`      STR      r3,[r2,#0]
        0x000003fc:    3a50        P:      SUBS     r2,r2,#0x50
        0x000003fe:    6811        .h      LDR      r1,[r2,#0]
        0x00000400:    2315        .#      MOVS     r3,#0x15
        0x00000402:    430b        .C      ORRS     r3,r3,r1
        0x00000404:    6013        .`      STR      r3,[r2,#0]
        0x00000406:    4903        .I      LDR      r1,[pc,#12] ; [0x414] = 0x400d0008
        0x00000408:    680a        .h      LDR      r2,[r1,#0]
        0x0000040a:    4302        .C      ORRS     r2,r2,r0
        0x0000040c:    600a        .`      STR      r2,[r1,#0]
        0x0000040e:    bd80        ..      POP      {r7,pc}
    $d
    __arm_cp.4_1
        0x00000410:    40040058    X..@    DCD    1074004056
    __arm_cp.4_2
        0x00000414:    400d0008    ...@    DCD    1074593800
    $t
    CLK_GetPCLKFreq
        0x00000418:    b580        ..      PUSH     {r7,lr}
        0x0000041a:    f001ff6b    ..k.    BL       SystemCoreClockUpdate ; 0x22f4
        0x0000041e:    4801        .H      LDR      r0,[pc,#4] ; [0x424] = 0x2000005c
        0x00000420:    6800        .h      LDR      r0,[r0,#0]
        0x00000422:    bd80        ..      POP      {r7,pc}
    $d
    __arm_cp.9_0
        0x00000424:    2000005c    \..     DCD    536871004
    $t
    CLK_WaitClockReady
        0x00000428:    4905        .I      LDR      r1,[pc,#20] ; [0x440] = 0xffdf0a7f
        0x0000042a:    4a06        .J      LDR      r2,[pc,#24] ; [0x444] = 0x50000250
        0x0000042c:    6813        .h      LDR      r3,[r2,#0]
        0x0000042e:    4003        .@      ANDS     r3,r3,r0
        0x00000430:    4283        .B      CMP      r3,r0
        0x00000432:    d003        ..      BEQ      0x43c ; CLK_WaitClockReady + 20
        0x00000434:    1c49        I.      ADDS     r1,r1,#1
        0x00000436:    d3f9        ..      BCC      0x42c ; CLK_WaitClockReady + 4
        0x00000438:    2000        .       MOVS     r0,#0
        0x0000043a:    4770        pG      BX       lr
        0x0000043c:    2001        .       MOVS     r0,#1
        0x0000043e:    4770        pG      BX       lr
    $d
    __arm_cp.12_0
        0x00000440:    ffdf0a7f    ....    DCD    4292807295
    __arm_cp.12_1
        0x00000444:    50000250    P..P    DCD    1342177872
    $t
    Check_Rotor_FW_RW_M0
        0x00000448:    1e40        @.      SUBS     r0,r0,#1
        0x0000044a:    2805        .(      CMP      r0,#5
        0x0000044c:    d811        ..      BHI      0x472 ; Check_Rotor_FW_RW_M0 + 42
        0x0000044e:    46c0        .F      MOV      r8,r8
        0x00000450:    4478        xD      ADD      r0,r0,pc
        0x00000452:    7900        .y      LDRB     r0,[r0,#4]
        0x00000454:    0040        @.      LSLS     r0,r0,#1
        0x00000456:    4487        .D      ADD      pc,pc,r0
    $d
        0x00000458:    130e1802    ....    DCD    319690754
        0x0000045c:    1d07        ..      DCW    7431
    $t
        0x0000045e:    2903        .)      CMP      r1,#3
        0x00000460:    d01d        ..      BEQ      0x49e ; Check_Rotor_FW_RW_M0 + 86
        0x00000462:    2905        .)      CMP      r1,#5
        0x00000464:    d004        ..      BEQ      0x470 ; Check_Rotor_FW_RW_M0 + 40
        0x00000466:    e004        ..      B        0x472 ; Check_Rotor_FW_RW_M0 + 42
        0x00000468:    2901        .)      CMP      r1,#1
        0x0000046a:    d01a        ..      BEQ      0x4a2 ; Check_Rotor_FW_RW_M0 + 90
        0x0000046c:    2904        .)      CMP      r1,#4
        0x0000046e:    d100        ..      BNE      0x472 ; Check_Rotor_FW_RW_M0 + 42
        0x00000470:    2200        ."      MOVS     r2,#0
        0x00000472:    4610        .F      MOV      r0,r2
        0x00000474:    4770        pG      BX       lr
        0x00000476:    2902        .)      CMP      r1,#2
        0x00000478:    d011        ..      BEQ      0x49e ; Check_Rotor_FW_RW_M0 + 86
        0x0000047a:    2901        .)      CMP      r1,#1
        0x0000047c:    d0f8        ..      BEQ      0x470 ; Check_Rotor_FW_RW_M0 + 40
        0x0000047e:    e7f8        ..      B        0x472 ; Check_Rotor_FW_RW_M0 + 42
        0x00000480:    2905        .)      CMP      r1,#5
        0x00000482:    d00c        ..      BEQ      0x49e ; Check_Rotor_FW_RW_M0 + 86
        0x00000484:    2906        .)      CMP      r1,#6
        0x00000486:    d0f3        ..      BEQ      0x470 ; Check_Rotor_FW_RW_M0 + 40
        0x00000488:    e7f3        ..      B        0x472 ; Check_Rotor_FW_RW_M0 + 42
        0x0000048a:    2906        .)      CMP      r1,#6
        0x0000048c:    d007        ..      BEQ      0x49e ; Check_Rotor_FW_RW_M0 + 86
        0x0000048e:    2903        .)      CMP      r1,#3
        0x00000490:    d0ee        ..      BEQ      0x470 ; Check_Rotor_FW_RW_M0 + 40
        0x00000492:    e7ee        ..      B        0x472 ; Check_Rotor_FW_RW_M0 + 42
        0x00000494:    2904        .)      CMP      r1,#4
        0x00000496:    d002        ..      BEQ      0x49e ; Check_Rotor_FW_RW_M0 + 86
        0x00000498:    2902        .)      CMP      r1,#2
        0x0000049a:    d0e9        ..      BEQ      0x470 ; Check_Rotor_FW_RW_M0 + 40
        0x0000049c:    e7e9        ..      B        0x472 ; Check_Rotor_FW_RW_M0 + 42
        0x0000049e:    2001        .       MOVS     r0,#1
        0x000004a0:    4770        pG      BX       lr
        0x000004a2:    4608        .F      MOV      r0,r1
        0x000004a4:    4770        pG      BX       lr
        0x000004a6:    0000        ..      MOVS     r0,r0
    Command_update
        0x000004a8:    b5f0        ..      PUSH     {r4-r7,lr}
        0x000004aa:    4a49        IJ      LDR      r2,[pc,#292] ; [0x5d0] = 0x35e4
        0x000004ac:    3234        42      ADDS     r2,r2,#0x34
        0x000004ae:    2007        .       MOVS     r0,#7
        0x000004b0:    43c0        .C      MVNS     r0,r0
        0x000004b2:    4603        .F      MOV      r3,r0
        0x000004b4:    3b10        .;      SUBS     r3,r3,#0x10
        0x000004b6:    4c47        GL      LDR      r4,[pc,#284] ; [0x5d4] = 0x20000068
        0x000004b8:    4947        GI      LDR      r1,[pc,#284] ; [0x5d8] = 0xffff
        0x000004ba:    e00a        ..      B        0x4d2 ; Command_update + 42
        0x000004bc:    7e6e        n~      LDRB     r6,[r5,#0x19]
        0x000004be:    6817        .h      LDR      r7,[r2,#0]
        0x000004c0:    707e        ~p      STRB     r6,[r7,#1]
        0x000004c2:    7e2e        .~      LDRB     r6,[r5,#0x18]
        0x000004c4:    6817        .h      LDR      r7,[r2,#0]
        0x000004c6:    703e        >p      STRB     r6,[r7,#0]
        0x000004c8:    2600        .&      MOVS     r6,#0
        0x000004ca:    772e        .w      STRB     r6,[r5,#0x1c]
        0x000004cc:    324c        L2      ADDS     r2,r2,#0x4c
        0x000004ce:    3308        .3      ADDS     r3,r3,#8
        0x000004d0:    d010        ..      BEQ      0x4f4 ; Command_update + 76
        0x000004d2:    18e5        ..      ADDS     r5,r4,r3
        0x000004d4:    7f2e        ..      LDRB     r6,[r5,#0x1c]
        0x000004d6:    2e01        ..      CMP      r6,#1
        0x000004d8:    d1f8        ..      BNE      0x4cc ; Command_update + 36
        0x000004da:    6856        Vh      LDR      r6,[r2,#4]
        0x000004dc:    428e        .B      CMP      r6,r1
        0x000004de:    d0ed        ..      BEQ      0x4bc ; Command_update + 20
        0x000004e0:    2eff        ..      CMP      r6,#0xff
        0x000004e2:    d0ee        ..      BEQ      0x4c2 ; Command_update + 26
        0x000004e4:    1c76        v.      ADDS     r6,r6,#1
        0x000004e6:    d1ef        ..      BNE      0x4c8 ; Command_update + 32
        0x000004e8:    7eee        .~      LDRB     r6,[r5,#0x1b]
        0x000004ea:    6817        .h      LDR      r7,[r2,#0]
        0x000004ec:    70fe        .p      STRB     r6,[r7,#3]
        0x000004ee:    7eae        .~      LDRB     r6,[r5,#0x1a]
        0x000004f0:    70be        .p      STRB     r6,[r7,#2]
        0x000004f2:    e7e3        ..      B        0x4bc ; Command_update + 20
        0x000004f4:    4a39        9J      LDR      r2,[pc,#228] ; [0x5dc] = 0x36c8
        0x000004f6:    3234        42      ADDS     r2,r2,#0x34
        0x000004f8:    4b39        9K      LDR      r3,[pc,#228] ; [0x5e0] = 0x20000080
        0x000004fa:    4604        .F      MOV      r4,r0
        0x000004fc:    e00a        ..      B        0x514 ; Command_update + 108
        0x000004fe:    7a6e        nz      LDRB     r6,[r5,#9]
        0x00000500:    6817        .h      LDR      r7,[r2,#0]
        0x00000502:    707e        ~p      STRB     r6,[r7,#1]
        0x00000504:    7a2e        .z      LDRB     r6,[r5,#8]
        0x00000506:    6817        .h      LDR      r7,[r2,#0]
        0x00000508:    703e        >p      STRB     r6,[r7,#0]
        0x0000050a:    2600        .&      MOVS     r6,#0
        0x0000050c:    732e        .s      STRB     r6,[r5,#0xc]
        0x0000050e:    324c        L2      ADDS     r2,r2,#0x4c
        0x00000510:    3408        .4      ADDS     r4,r4,#8
        0x00000512:    d110        ..      BNE      0x536 ; Command_update + 142
        0x00000514:    191d        ..      ADDS     r5,r3,r4
        0x00000516:    7b2e        .{      LDRB     r6,[r5,#0xc]
        0x00000518:    2e01        ..      CMP      r6,#1
        0x0000051a:    d1f8        ..      BNE      0x50e ; Command_update + 102
        0x0000051c:    6856        Vh      LDR      r6,[r2,#4]
        0x0000051e:    428e        .B      CMP      r6,r1
        0x00000520:    d0ed        ..      BEQ      0x4fe ; Command_update + 86
        0x00000522:    2eff        ..      CMP      r6,#0xff
        0x00000524:    d0ee        ..      BEQ      0x504 ; Command_update + 92
        0x00000526:    1c76        v.      ADDS     r6,r6,#1
        0x00000528:    d1ef        ..      BNE      0x50a ; Command_update + 98
        0x0000052a:    7aee        .z      LDRB     r6,[r5,#0xb]
        0x0000052c:    6817        .h      LDR      r7,[r2,#0]
        0x0000052e:    70fe        .p      STRB     r6,[r7,#3]
        0x00000530:    7aae        .z      LDRB     r6,[r5,#0xa]
        0x00000532:    70be        .p      STRB     r6,[r7,#2]
        0x00000534:    e7e3        ..      B        0x4fe ; Command_update + 86
        0x00000536:    4a2b        +J      LDR      r2,[pc,#172] ; [0x5e4] = 0x3760
        0x00000538:    3234        42      ADDS     r2,r2,#0x34
        0x0000053a:    4b2b        +K      LDR      r3,[pc,#172] ; [0x5e8] = 0x20000090
        0x0000053c:    4604        .F      MOV      r4,r0
        0x0000053e:    e00a        ..      B        0x556 ; Command_update + 174
        0x00000540:    7a6e        nz      LDRB     r6,[r5,#9]
        0x00000542:    6817        .h      LDR      r7,[r2,#0]
        0x00000544:    707e        ~p      STRB     r6,[r7,#1]
        0x00000546:    7a2e        .z      LDRB     r6,[r5,#8]
        0x00000548:    6817        .h      LDR      r7,[r2,#0]
        0x0000054a:    703e        >p      STRB     r6,[r7,#0]
        0x0000054c:    2600        .&      MOVS     r6,#0
        0x0000054e:    732e        .s      STRB     r6,[r5,#0xc]
        0x00000550:    324c        L2      ADDS     r2,r2,#0x4c
        0x00000552:    3408        .4      ADDS     r4,r4,#8
        0x00000554:    d110        ..      BNE      0x578 ; Command_update + 208
        0x00000556:    191d        ..      ADDS     r5,r3,r4
        0x00000558:    7b2e        .{      LDRB     r6,[r5,#0xc]
        0x0000055a:    2e01        ..      CMP      r6,#1
        0x0000055c:    d1f8        ..      BNE      0x550 ; Command_update + 168
        0x0000055e:    6856        Vh      LDR      r6,[r2,#4]
        0x00000560:    428e        .B      CMP      r6,r1
        0x00000562:    d0ed        ..      BEQ      0x540 ; Command_update + 152
        0x00000564:    2eff        ..      CMP      r6,#0xff
        0x00000566:    d0ee        ..      BEQ      0x546 ; Command_update + 158
        0x00000568:    1c76        v.      ADDS     r6,r6,#1
        0x0000056a:    d1ef        ..      BNE      0x54c ; Command_update + 164
        0x0000056c:    7aee        .z      LDRB     r6,[r5,#0xb]
        0x0000056e:    6817        .h      LDR      r7,[r2,#0]
        0x00000570:    70fe        .p      STRB     r6,[r7,#3]
        0x00000572:    7aae        .z      LDRB     r6,[r5,#0xa]
        0x00000574:    70be        .p      STRB     r6,[r7,#2]
        0x00000576:    e7e3        ..      B        0x540 ; Command_update + 152
        0x00000578:    4a1c        .J      LDR      r2,[pc,#112] ; [0x5ec] = 0x37f8
        0x0000057a:    3234        42      ADDS     r2,r2,#0x34
        0x0000057c:    4b1c        .K      LDR      r3,[pc,#112] ; [0x5f0] = 0x200000a0
        0x0000057e:    e00a        ..      B        0x596 ; Command_update + 238
        0x00000580:    7a65        ez      LDRB     r5,[r4,#9]
        0x00000582:    6816        .h      LDR      r6,[r2,#0]
        0x00000584:    7075        up      STRB     r5,[r6,#1]
        0x00000586:    7a25        %z      LDRB     r5,[r4,#8]
        0x00000588:    6816        .h      LDR      r6,[r2,#0]
        0x0000058a:    7035        5p      STRB     r5,[r6,#0]
        0x0000058c:    2500        .%      MOVS     r5,#0
        0x0000058e:    7325        %s      STRB     r5,[r4,#0xc]
        0x00000590:    324c        L2      ADDS     r2,r2,#0x4c
        0x00000592:    3008        .0      ADDS     r0,r0,#8
        0x00000594:    d110        ..      BNE      0x5b8 ; Command_update + 272
        0x00000596:    181c        ..      ADDS     r4,r3,r0
        0x00000598:    7b25        %{      LDRB     r5,[r4,#0xc]
        0x0000059a:    2d01        .-      CMP      r5,#1
        0x0000059c:    d1f8        ..      BNE      0x590 ; Command_update + 232
        0x0000059e:    6855        Uh      LDR      r5,[r2,#4]
        0x000005a0:    428d        .B      CMP      r5,r1
        0x000005a2:    d0ed        ..      BEQ      0x580 ; Command_update + 216
        0x000005a4:    2dff        .-      CMP      r5,#0xff
        0x000005a6:    d0ee        ..      BEQ      0x586 ; Command_update + 222
        0x000005a8:    1c6d        m.      ADDS     r5,r5,#1
        0x000005aa:    d1ef        ..      BNE      0x58c ; Command_update + 228
        0x000005ac:    7ae5        .z      LDRB     r5,[r4,#0xb]
        0x000005ae:    6816        .h      LDR      r6,[r2,#0]
        0x000005b0:    70f5        .p      STRB     r5,[r6,#3]
        0x000005b2:    7aa5        .z      LDRB     r5,[r4,#0xa]
        0x000005b4:    70b5        .p      STRB     r5,[r6,#2]
        0x000005b6:    e7e3        ..      B        0x580 ; Command_update + 216
        0x000005b8:    480e        .H      LDR      r0,[pc,#56] ; [0x5f4] = 0x20000188
        0x000005ba:    7901        .y      LDRB     r1,[r0,#4]
        0x000005bc:    2901        .)      CMP      r1,#1
        0x000005be:    d105        ..      BNE      0x5cc ; Command_update + 292
        0x000005c0:    7801        .x      LDRB     r1,[r0,#0]
        0x000005c2:    2272        r"      MOVS     r2,#0x72
        0x000005c4:    4b7c        |K      LDR      r3,[pc,#496] ; [0x7b8] = 0x200000b4
        0x000005c6:    5499        .T      STRB     r1,[r3,r2]
        0x000005c8:    2100        .!      MOVS     r1,#0
        0x000005ca:    7101        .q      STRB     r1,[r0,#4]
        0x000005cc:    bdf0        ..      POP      {r4-r7,pc}
        0x000005ce:    46c0        .F      MOV      r8,r8
    $d
    __arm_cp.12_0
        0x000005d0:    000035e4    .5..    DCD    13796
    __arm_cp.12_1
        0x000005d4:    20000068    h..     DCD    536871016
    __arm_cp.12_2
        0x000005d8:    0000ffff    ....    DCD    65535
    __arm_cp.12_3
        0x000005dc:    000036c8    .6..    DCD    14024
    __arm_cp.12_4
        0x000005e0:    20000080    ...     DCD    536871040
    __arm_cp.12_5
        0x000005e4:    00003760    `7..    DCD    14176
    __arm_cp.12_6
        0x000005e8:    20000090    ...     DCD    536871056
    __arm_cp.12_7
        0x000005ec:    000037f8    .7..    DCD    14328
    __arm_cp.12_8
        0x000005f0:    200000a0    ...     DCD    536871072
    __arm_cp.12_9
        0x000005f4:    20000188    ...     DCD    536871304
    __arm_cp.12_10
        0x000005f8:    200000b4    ...     DCD    536871092
    $t
    DAC_Module_Check
        0x000005fc:    b570        p.      PUSH     {r4-r6,lr}
        0x000005fe:    485b        [H      LDR      r0,[pc,#364] ; [0x76c] = 0x2000020e
        0x00000600:    4958        XI      LDR      r1,[pc,#352] ; [0x764] = 0xfff
        0x00000602:    8001        ..      STRH     r1,[r0,#0]
        0x00000604:    4856        VH      LDR      r0,[pc,#344] ; [0x760] = 0x500048d8
        0x00000606:    2101        .!      MOVS     r1,#1
        0x00000608:    6001        .`      STR      r1,[r0,#0]
        0x0000060a:    02ca        ..      LSLS     r2,r1,#11
        0x0000060c:    4b58        XK      LDR      r3,[pc,#352] ; [0x770] = 0x20000210
        0x0000060e:    801a        ..      STRH     r2,[r3,#0]
        0x00000610:    028a        ..      LSLS     r2,r1,#10
        0x00000612:    4b58        XK      LDR      r3,[pc,#352] ; [0x774] = 0x20000212
        0x00000614:    801a        ..      STRH     r2,[r3,#0]
        0x00000616:    024a        J.      LSLS     r2,r1,#9
        0x00000618:    4b53        SK      LDR      r3,[pc,#332] ; [0x768] = 0x20000214
        0x0000061a:    801a        ..      STRH     r2,[r3,#0]
        0x0000061c:    044a        J.      LSLS     r2,r1,#17
        0x0000061e:    4b56        VK      LDR      r3,[pc,#344] ; [0x778] = 0x40170064
        0x00000620:    681c        .h      LDR      r4,[r3,#0]
        0x00000622:    4214        .B      TST      r4,r2
        0x00000624:    d1fc        ..      BNE      0x620 ; DAC_Module_Check + 36
        0x00000626:    2500        .%      MOVS     r5,#0
        0x00000628:    6005        .`      STR      r5,[r0,#0]
        0x0000062a:    461c        .F      MOV      r4,r3
        0x0000062c:    3c34        4<      SUBS     r4,r4,#0x34
        0x0000062e:    261f        .&      MOVS     r6,#0x1f
        0x00000630:    02f6        ..      LSLS     r6,r6,#11
        0x00000632:    6026        &`      STR      r6,[r4,#0]
        0x00000634:    681e        .h      LDR      r6,[r3,#0]
        0x00000636:    4216        .B      TST      r6,r2
        0x00000638:    d1fc        ..      BNE      0x634 ; DAC_Module_Check + 56
        0x0000063a:    6001        .`      STR      r1,[r0,#0]
        0x0000063c:    6001        .`      STR      r1,[r0,#0]
        0x0000063e:    681e        .h      LDR      r6,[r3,#0]
        0x00000640:    4216        .B      TST      r6,r2
        0x00000642:    d1fc        ..      BNE      0x63e ; DAC_Module_Check + 66
        0x00000644:    6005        .`      STR      r5,[r0,#0]
        0x00000646:    4e15        .N      LDR      r6,[pc,#84] ; [0x69c] = 0x8fff
        0x00000648:    6026        &`      STR      r6,[r4,#0]
        0x0000064a:    681e        .h      LDR      r6,[r3,#0]
        0x0000064c:    4216        .B      TST      r6,r2
        0x0000064e:    d1fc        ..      BNE      0x64a ; DAC_Module_Check + 78
        0x00000650:    6001        .`      STR      r1,[r0,#0]
        0x00000652:    6001        .`      STR      r1,[r0,#0]
        0x00000654:    681e        .h      LDR      r6,[r3,#0]
        0x00000656:    4216        .B      TST      r6,r2
        0x00000658:    d1fc        ..      BNE      0x654 ; DAC_Module_Check + 88
        0x0000065a:    6005        .`      STR      r5,[r0,#0]
        0x0000065c:    2613        .&      MOVS     r6,#0x13
        0x0000065e:    02f6        ..      LSLS     r6,r6,#11
        0x00000660:    6026        &`      STR      r6,[r4,#0]
        0x00000662:    681e        .h      LDR      r6,[r3,#0]
        0x00000664:    4216        .B      TST      r6,r2
        0x00000666:    d1fc        ..      BNE      0x662 ; DAC_Module_Check + 102
        0x00000668:    6001        .`      STR      r1,[r0,#0]
        0x0000066a:    6001        .`      STR      r1,[r0,#0]
        0x0000066c:    681e        .h      LDR      r6,[r3,#0]
        0x0000066e:    4216        .B      TST      r6,r2
        0x00000670:    d1fc        ..      BNE      0x66c ; DAC_Module_Check + 112
        0x00000672:    6005        .`      STR      r5,[r0,#0]
        0x00000674:    2629        )&      MOVS     r6,#0x29
        0x00000676:    02b6        ..      LSLS     r6,r6,#10
        0x00000678:    6026        &`      STR      r6,[r4,#0]
        0x0000067a:    681e        .h      LDR      r6,[r3,#0]
        0x0000067c:    4216        .B      TST      r6,r2
        0x0000067e:    d1fc        ..      BNE      0x67a ; DAC_Module_Check + 126
        0x00000680:    6001        .`      STR      r1,[r0,#0]
        0x00000682:    6001        .`      STR      r1,[r0,#0]
        0x00000684:    681e        .h      LDR      r6,[r3,#0]
        0x00000686:    4216        .B      TST      r6,r2
        0x00000688:    d1fc        ..      BNE      0x684 ; DAC_Module_Check + 136
        0x0000068a:    6005        .`      STR      r5,[r0,#0]
        0x0000068c:    2559        Y%      MOVS     r5,#0x59
        0x0000068e:    026d        m.      LSLS     r5,r5,#9
        0x00000690:    6025        %`      STR      r5,[r4,#0]
        0x00000692:    681c        .h      LDR      r4,[r3,#0]
        0x00000694:    4214        .B      TST      r4,r2
        0x00000696:    d1fc        ..      BNE      0x692 ; DAC_Module_Check + 150
        0x00000698:    6001        .`      STR      r1,[r0,#0]
        0x0000069a:    bd70        p.      POP      {r4-r6,pc}
    $d
    __arm_cp.13_7
        0x0000069c:    00008fff    ....    DCD    36863
    $t
    DAC_Output_M0
        0x000006a0:    b5f0        ..      PUSH     {r4-r7,lr}
        0x000006a2:    b081        ..      SUB      sp,sp,#4
        0x000006a4:    482e        .H      LDR      r0,[pc,#184] ; [0x760] = 0x500048d8
        0x000006a6:    2101        .!      MOVS     r1,#1
        0x000006a8:    6001        .`      STR      r1,[r0,#0]
        0x000006aa:    226c        l"      MOVS     r2,#0x6c
        0x000006ac:    4bf1        .K      LDR      r3,[pc,#964] ; [0xa74] = 0x200000b4
        0x000006ae:    5a9a        .Z      LDRH     r2,[r3,r2]
        0x000006b0:    0092        ..      LSLS     r2,r2,#2
        0x000006b2:    4c2c        ,L      LDR      r4,[pc,#176] ; [0x764] = 0xfff
        0x000006b4:    1ee0        ..      SUBS     r0,r4,#3
        0x000006b6:    4010        .@      ANDS     r0,r0,r2
        0x000006b8:    4a2b        +J      LDR      r2,[pc,#172] ; [0x768] = 0x20000214
        0x000006ba:    9000        ..      STR      r0,[sp,#0]
        0x000006bc:    8010        ..      STRH     r0,[r2,#0]
        0x000006be:    02cc        ..      LSLS     r4,r1,#11
        0x000006c0:    8b9a        ..      LDRH     r2,[r3,#0x1c]
        0x000006c2:    0492        ..      LSLS     r2,r2,#18
        0x000006c4:    0d16        ..      LSRS     r6,r2,#20
        0x000006c6:    4066        f@      EORS     r6,r6,r4
        0x000006c8:    4a28        (J      LDR      r2,[pc,#160] ; [0x76c] = 0x2000020e
        0x000006ca:    8016        ..      STRH     r6,[r2,#0]
        0x000006cc:    8bda        ..      LDRH     r2,[r3,#0x1e]
        0x000006ce:    0492        ..      LSLS     r2,r2,#18
        0x000006d0:    0d12        ..      LSRS     r2,r2,#20
        0x000006d2:    4062        b@      EORS     r2,r2,r4
        0x000006d4:    4d26        &M      LDR      r5,[pc,#152] ; [0x770] = 0x20000210
        0x000006d6:    802a        *.      STRH     r2,[r5,#0]
        0x000006d8:    8c1b        ..      LDRH     r3,[r3,#0x20]
        0x000006da:    049b        ..      LSLS     r3,r3,#18
        0x000006dc:    0d1f        ..      LSRS     r7,r3,#20
        0x000006de:    4067        g@      EORS     r7,r7,r4
        0x000006e0:    4b24        $K      LDR      r3,[pc,#144] ; [0x774] = 0x20000212
        0x000006e2:    801f        ..      STRH     r7,[r3,#0]
        0x000006e4:    044b        K.      LSLS     r3,r1,#17
        0x000006e6:    4c24        $L      LDR      r4,[pc,#144] ; [0x778] = 0x40170064
        0x000006e8:    6825        %h      LDR      r5,[r4,#0]
        0x000006ea:    421d        .B      TST      r5,r3
        0x000006ec:    d1fc        ..      BNE      0x6e8 ; DAC_Output_M0 + 72
        0x000006ee:    2500        .%      MOVS     r5,#0
        0x000006f0:    481b        .H      LDR      r0,[pc,#108] ; [0x760] = 0x500048d8
        0x000006f2:    6005        .`      STR      r5,[r0,#0]
        0x000006f4:    03c8        ..      LSLS     r0,r1,#15
        0x000006f6:    1830        0.      ADDS     r0,r6,r0
        0x000006f8:    4626        &F      MOV      r6,r4
        0x000006fa:    3e34        4>      SUBS     r6,r6,#0x34
        0x000006fc:    6030        0`      STR      r0,[r6,#0]
        0x000006fe:    6820         h      LDR      r0,[r4,#0]
        0x00000700:    4218        .B      TST      r0,r3
        0x00000702:    d1fc        ..      BNE      0x6fe ; DAC_Output_M0 + 94
        0x00000704:    4816        .H      LDR      r0,[pc,#88] ; [0x760] = 0x500048d8
        0x00000706:    6001        .`      STR      r1,[r0,#0]
        0x00000708:    6001        .`      STR      r1,[r0,#0]
        0x0000070a:    6820         h      LDR      r0,[r4,#0]
        0x0000070c:    4218        .B      TST      r0,r3
        0x0000070e:    d1fc        ..      BNE      0x70a ; DAC_Output_M0 + 106
        0x00000710:    4813        .H      LDR      r0,[pc,#76] ; [0x760] = 0x500048d8
        0x00000712:    6005        .`      STR      r5,[r0,#0]
        0x00000714:    2009        .       MOVS     r0,#9
        0x00000716:    0300        ..      LSLS     r0,r0,#12
        0x00000718:    1810        ..      ADDS     r0,r2,r0
        0x0000071a:    6030        0`      STR      r0,[r6,#0]
        0x0000071c:    6820         h      LDR      r0,[r4,#0]
        0x0000071e:    4218        .B      TST      r0,r3
        0x00000720:    d1fc        ..      BNE      0x71c ; DAC_Output_M0 + 124
        0x00000722:    4a0f        .J      LDR      r2,[pc,#60] ; [0x760] = 0x500048d8
        0x00000724:    6011        .`      STR      r1,[r2,#0]
        0x00000726:    6011        .`      STR      r1,[r2,#0]
        0x00000728:    6820         h      LDR      r0,[r4,#0]
        0x0000072a:    4218        .B      TST      r0,r3
        0x0000072c:    d1fc        ..      BNE      0x728 ; DAC_Output_M0 + 136
        0x0000072e:    6015        .`      STR      r5,[r2,#0]
        0x00000730:    2005        .       MOVS     r0,#5
        0x00000732:    0340        @.      LSLS     r0,r0,#13
        0x00000734:    1838        8.      ADDS     r0,r7,r0
        0x00000736:    6030        0`      STR      r0,[r6,#0]
        0x00000738:    6820         h      LDR      r0,[r4,#0]
        0x0000073a:    4218        .B      TST      r0,r3
        0x0000073c:    d1fc        ..      BNE      0x738 ; DAC_Output_M0 + 152
        0x0000073e:    6011        .`      STR      r1,[r2,#0]
        0x00000740:    6011        .`      STR      r1,[r2,#0]
        0x00000742:    6820         h      LDR      r0,[r4,#0]
        0x00000744:    4218        .B      TST      r0,r3
        0x00000746:    d1fc        ..      BNE      0x742 ; DAC_Output_M0 + 162
        0x00000748:    6015        .`      STR      r5,[r2,#0]
        0x0000074a:    200b        .       MOVS     r0,#0xb
        0x0000074c:    0300        ..      LSLS     r0,r0,#12
        0x0000074e:    9d00        ..      LDR      r5,[sp,#0]
        0x00000750:    1828        (.      ADDS     r0,r5,r0
        0x00000752:    6030        0`      STR      r0,[r6,#0]
        0x00000754:    6820         h      LDR      r0,[r4,#0]
        0x00000756:    4218        .B      TST      r0,r3
        0x00000758:    d1fc        ..      BNE      0x754 ; DAC_Output_M0 + 180
        0x0000075a:    6011        .`      STR      r1,[r2,#0]
        0x0000075c:    b001        ..      ADD      sp,sp,#4
        0x0000075e:    bdf0        ..      POP      {r4-r7,pc}
    $d
    __arm_cp.12_0
        0x00000760:    500048d8    .H.P    DCD    1342195928
    __arm_cp.12_2
        0x00000764:    00000fff    ....    DCD    4095
    __arm_cp.12_3
        0x00000768:    20000214    ...     DCD    536871444
    __arm_cp.12_4
        0x0000076c:    2000020e    ...     DCD    536871438
    __arm_cp.12_5
        0x00000770:    20000210    ...     DCD    536871440
    __arm_cp.12_6
        0x00000774:    20000212    ...     DCD    536871442
    __arm_cp.12_7
        0x00000778:    40170064    d..@    DCD    1075249252
    $t
    Detect_Initial_Hall_Position_M0
        0x0000077c:    480d        .H      LDR      r0,[pc,#52] ; [0x7b4] = 0x50004150
        0x0000077e:    6801        .h      LDR      r1,[r0,#0]
        0x00000780:    2007        .       MOVS     r0,#7
        0x00000782:    4008        .@      ANDS     r0,r0,r1
        0x00000784:    d015        ..      BEQ      0x7b2 ; Detect_Initial_Hall_Position_M0 + 54
        0x00000786:    2807        .(      CMP      r0,#7
        0x00000788:    d013        ..      BEQ      0x7b2 ; Detect_Initial_Hall_Position_M0 + 54
        0x0000078a:    2245        E"      MOVS     r2,#0x45
        0x0000078c:    490a        .I      LDR      r1,[pc,#40] ; [0x7b8] = 0x200000b4
        0x0000078e:    5488        .T      STRB     r0,[r1,r2]
        0x00000790:    2244        D"      MOVS     r2,#0x44
        0x00000792:    5488        .T      STRB     r0,[r1,r2]
        0x00000794:    2273        s"      MOVS     r2,#0x73
        0x00000796:    5c8a        .\      LDRB     r2,[r1,r2]
        0x00000798:    2a01        .*      CMP      r2,#1
        0x0000079a:    d001        ..      BEQ      0x7a0 ; Detect_Initial_Hall_Position_M0 + 36
        0x0000079c:    a20a        ..      ADR      r2,{pc}+0x2c ; 0x7c8
        0x0000079e:    e000        ..      B        0x7a2 ; Detect_Initial_Hall_Position_M0 + 38
        0x000007a0:    a206        ..      ADR      r2,{pc}+0x1c ; 0x7bc
        0x000007a2:    0040        @.      LSLS     r0,r0,#1
        0x000007a4:    1880        ..      ADDS     r0,r0,r2
        0x000007a6:    1e80        ..      SUBS     r0,r0,#2
        0x000007a8:    8800        ..      LDRH     r0,[r0,#0]
        0x000007aa:    0402        ..      LSLS     r2,r0,#16
        0x000007ac:    23a4        .#      MOVS     r3,#0xa4
        0x000007ae:    50ca        .P      STR      r2,[r1,r3]
        0x000007b0:    8708        ..      STRH     r0,[r1,#0x38]
        0x000007b2:    4770        pG      BX       lr
    $d
    __arm_cp.3_0
        0x000007b4:    50004150    PA.P    DCD    1342194000
    __arm_cp.3_1
        0x000007b8:    200000b4    ...     DCD    536871092
        0x000007bc:    010003aa    ....    DCD    16778154
        0x000007c0:    02550055    U.U.    DCD    39125077
        0x000007c4:    01aa0300    ....    DCD    27919104
        0x000007c8:    01ab0056    V...    DCD    27983958
        0x000007cc:    03000100    ....    DCD    50331904
        0x000007d0:    025603ab    ..V.    DCD    39191467
    $t
    ECAP_IRQHandler
        0x000007d4:    b5f0        ..      PUSH     {r4-r7,lr}
        0x000007d6:    b085        ..      SUB      sp,sp,#0x14
        0x000007d8:    24b0        .$      MOVS     r4,#0xb0
        0x000007da:    4ea6        .N      LDR      r6,[pc,#664] ; [0xa74] = 0x200000b4
        0x000007dc:    2000        .       MOVS     r0,#0
        0x000007de:    9003        ..      STR      r0,[sp,#0xc]
        0x000007e0:    5530        0U      STRB     r0,[r6,r4]
        0x000007e2:    48a5        .H      LDR      r0,[pc,#660] ; [0xa78] = 0x50004150
        0x000007e4:    6800        .h      LDR      r0,[r0,#0]
        0x000007e6:    2107        .!      MOVS     r1,#7
        0x000007e8:    4001        .@      ANDS     r1,r1,r0
        0x000007ea:    2044        D       MOVS     r0,#0x44
        0x000007ec:    5431        1T      STRB     r1,[r6,r0]
        0x000007ee:    4aa3        .J      LDR      r2,[pc,#652] ; [0xa7c] = 0x401b0004
        0x000007f0:    6995        .i      LDR      r5,[r2,#0x18]
        0x000007f2:    2037        7       MOVS     r0,#0x37
        0x000007f4:    6190        .a      STR      r0,[r2,#0x18]
        0x000007f6:    2045        E       MOVS     r0,#0x45
        0x000007f8:    9002        ..      STR      r0,[sp,#8]
        0x000007fa:    5c30        0\      LDRB     r0,[r6,r0]
        0x000007fc:    2746        F'      MOVS     r7,#0x46
        0x000007fe:    5df2        .]      LDRB     r2,[r6,r7]
        0x00000800:    9001        ..      STR      r0,[sp,#4]
        0x00000802:    9104        ..      STR      r1,[sp,#0x10]
        0x00000804:    f7fffe20    .. .    BL       Check_Rotor_FW_RW_M0 ; 0x448
        0x00000808:    4622        "F      MOV      r2,r4
        0x0000080a:    4604        .F      MOV      r4,r0
        0x0000080c:    55f0        .U      STRB     r0,[r6,r7]
        0x0000080e:    4637        7F      MOV      r7,r6
        0x00000810:    9e03        ..      LDR      r6,[sp,#0xc]
        0x00000812:    489b        .H      LDR      r0,[pc,#620] ; [0xa80] = 0x20000218
        0x00000814:    6004        .`      STR      r4,[r0,#0]
        0x00000816:    489b        .H      LDR      r0,[pc,#620] ; [0xa84] = 0x2000021c
        0x00000818:    6005        .`      STR      r5,[r0,#0]
        0x0000081a:    2073        s       MOVS     r0,#0x73
        0x0000081c:    0769        i.      LSLS     r1,r5,#29
        0x0000081e:    d000        ..      BEQ      0x822 ; ECAP_IRQHandler + 78
        0x00000820:    54be        .T      STRB     r6,[r7,r2]
        0x00000822:    5c38        8\      LDRB     r0,[r7,r0]
        0x00000824:    9000        ..      STR      r0,[sp,#0]
        0x00000826:    06e8        ..      LSLS     r0,r5,#27
        0x00000828:    d514        ..      BPL      0x854 ; ECAP_IRQHandler + 128
        0x0000082a:    2001        .       MOVS     r0,#1
        0x0000082c:    54b8        .T      STRB     r0,[r7,r2]
        0x0000082e:    4896        .H      LDR      r0,[pc,#600] ; [0xa88] = 0x7fff
        0x00000830:    1c40        @.      ADDS     r0,r0,#1
        0x00000832:    2198        .!      MOVS     r1,#0x98
        0x00000834:    5078        xP      STR      r0,[r7,r1]
        0x00000836:    4638        8F      MOV      r0,r7
        0x00000838:    4625        %F      MOV      r5,r4
        0x0000083a:    4614        .F      MOV      r4,r2
        0x0000083c:    f000fa88    ....    BL       HallSpeedEstimator ; 0xd50
        0x00000840:    4622        "F      MOV      r2,r4
        0x00000842:    462c        ,F      MOV      r4,r5
        0x00000844:    20b4        .       MOVS     r0,#0xb4
        0x00000846:    543e        >T      STRB     r6,[r7,r0]
        0x00000848:    20b2        .       MOVS     r0,#0xb2
        0x0000084a:    523e        >R      STRH     r6,[r7,r0]
        0x0000084c:    488b        .H      LDR      r0,[pc,#556] ; [0xa7c] = 0x401b0004
        0x0000084e:    1f00        ..      SUBS     r0,r0,#4
        0x00000850:    6006        .`      STR      r6,[r0,#0]
        0x00000852:    86be        ..      STRH     r6,[r7,#0x34]
        0x00000854:    9e04        ..      LDR      r6,[sp,#0x10]
        0x00000856:    2e00        ..      CMP      r6,#0
        0x00000858:    d100        ..      BNE      0x85c ; ECAP_IRQHandler + 136
        0x0000085a:    e108        ..      B        0xa6e ; ECAP_IRQHandler + 666
        0x0000085c:    2e07        ..      CMP      r6,#7
        0x0000085e:    d100        ..      BNE      0x862 ; ECAP_IRQHandler + 142
        0x00000860:    e105        ..      B        0xa6e ; ECAP_IRQHandler + 666
        0x00000862:    20b4        .       MOVS     r0,#0xb4
        0x00000864:    5c39        9\      LDRB     r1,[r7,r0]
        0x00000866:    5cba        .\      LDRB     r2,[r7,r2]
        0x00000868:    4311        .C      ORRS     r1,r1,r2
        0x0000086a:    0609        ..      LSLS     r1,r1,#24
        0x0000086c:    b2d1        ..      UXTB     r1,r2
        0x0000086e:    d108        ..      BNE      0x882 ; ECAP_IRQHandler + 174
        0x00000870:    22b2        ."      MOVS     r2,#0xb2
        0x00000872:    5abb        .Z      LDRH     r3,[r7,r2]
        0x00000874:    1c5b        [.      ADDS     r3,r3,#1
        0x00000876:    52bb        .R      STRH     r3,[r7,r2]
        0x00000878:    b29a        ..      UXTH     r2,r3
        0x0000087a:    2a02        .*      CMP      r2,#2
        0x0000087c:    d301        ..      BCC      0x882 ; ECAP_IRQHandler + 174
        0x0000087e:    2202        ."      MOVS     r2,#2
        0x00000880:    543a        :T      STRB     r2,[r7,r0]
        0x00000882:    2900        .)      CMP      r1,#0
        0x00000884:    d000        ..      BEQ      0x888 ; ECAP_IRQHandler + 180
        0x00000886:    e0f0        ..      B        0xa6a ; ECAP_IRQHandler + 662
        0x00000888:    1e70        p.      SUBS     r0,r6,#1
        0x0000088a:    0080        ..      LSLS     r0,r0,#2
        0x0000088c:    2c01        .,      CMP      r4,#1
        0x0000088e:    d115        ..      BNE      0x8bc ; ECAP_IRQHandler + 232
        0x00000890:    a101        ..      ADR      r1,{pc}+8 ; 0x898
        0x00000892:    5808        .X      LDR      r0,[r1,r0]
        0x00000894:    4687        .F      MOV      pc,r0
        0x00000896:    46c0        .F      MOV      r8,r8
    $d
        0x00000898:    000008b1    ....    DCD    2225
        0x0000089c:    00000951    Q...    DCD    2385
        0x000008a0:    00000913    ....    DCD    2323
        0x000008a4:    00000927    '...    DCD    2343
        0x000008a8:    000008eb    ....    DCD    2283
        0x000008ac:    0000097b    {...    DCD    2427
    $t
        0x000008b0:    9800        ..      LDR      r0,[sp,#0]
        0x000008b2:    2801        .(      CMP      r0,#1
        0x000008b4:    d100        ..      BNE      0x8b8 ; ECAP_IRQHandler + 228
        0x000008b6:    e09a        ..      B        0x9ee ; ECAP_IRQHandler + 538
        0x000008b8:    2001        .       MOVS     r0,#1
        0x000008ba:    e09a        ..      B        0x9f2 ; ECAP_IRQHandler + 542
        0x000008bc:    a101        ..      ADR      r1,{pc}+8 ; 0x8c4
        0x000008be:    5808        .X      LDR      r0,[r1,r0]
        0x000008c0:    4687        .F      MOV      pc,r0
        0x000008c2:    46c0        .F      MOV      r8,r8
    $d
        0x000008c4:    000008dd    ....    DCD    2269
        0x000008c8:    0000096d    m...    DCD    2413
        0x000008cc:    0000091d    ....    DCD    2333
        0x000008d0:    00000935    5...    DCD    2357
        0x000008d4:    000008f7    ....    DCD    2295
        0x000008d8:    00000989    ....    DCD    2441
    $t
        0x000008dc:    9800        ..      LDR      r0,[sp,#0]
        0x000008de:    2800        .(      CMP      r0,#0
        0x000008e0:    d100        ..      BNE      0x8e4 ; ECAP_IRQHandler + 272
        0x000008e2:    e08e        ..      B        0xa02 ; ECAP_IRQHandler + 558
        0x000008e4:    4869        iH      LDR      r0,[pc,#420] ; [0xa8c] = 0x355
        0x000008e6:    30aa        .0      ADDS     r0,r0,#0xaa
        0x000008e8:    e08c        ..      B        0xa04 ; ECAP_IRQHandler + 560
        0x000008ea:    9800        ..      LDR      r0,[sp,#0]
        0x000008ec:    2801        .(      CMP      r0,#1
        0x000008ee:    d052        R.      BEQ      0x996 ; ECAP_IRQHandler + 450
        0x000008f0:    4866        fH      LDR      r0,[pc,#408] ; [0xa8c] = 0x355
        0x000008f2:    1c44        D.      ADDS     r4,r0,#1
        0x000008f4:    e051        Q.      B        0x99a ; ECAP_IRQHandler + 454
        0x000008f6:    4865        eH      LDR      r0,[pc,#404] ; [0xa8c] = 0x355
        0x000008f8:    9900        ..      LDR      r1,[sp,#0]
        0x000008fa:    2900        .)      CMP      r1,#0
        0x000008fc:    d100        ..      BNE      0x900 ; ECAP_IRQHandler + 300
        0x000008fe:    3056        V0      ADDS     r0,r0,#0x56
        0x00000900:    0401        ..      LSLS     r1,r0,#16
        0x00000902:    22a4        ."      MOVS     r2,#0xa4
        0x00000904:    50b9        .P      STR      r1,[r7,r2]
        0x00000906:    8738        8.      STRH     r0,[r7,#0x38]
        0x00000908:    9801        ..      LDR      r0,[sp,#4]
        0x0000090a:    2801        .(      CMP      r0,#1
        0x0000090c:    d000        ..      BEQ      0x910 ; ECAP_IRQHandler + 316
        0x0000090e:    e0a6        ..      B        0xa5e ; ECAP_IRQHandler + 650
        0x00000910:    e093        ..      B        0xa3a ; ECAP_IRQHandler + 614
        0x00000912:    9800        ..      LDR      r0,[sp,#0]
        0x00000914:    2801        .(      CMP      r0,#1
        0x00000916:    d04a        J.      BEQ      0x9ae ; ECAP_IRQHandler + 474
        0x00000918:    20ab        .       MOVS     r0,#0xab
        0x0000091a:    e049        I.      B        0x9b0 ; ECAP_IRQHandler + 476
        0x0000091c:    9800        ..      LDR      r0,[sp,#0]
        0x0000091e:    2800        .(      CMP      r0,#0
        0x00000920:    d04e        N.      BEQ      0x9c0 ; ECAP_IRQHandler + 492
        0x00000922:    24aa        .$      MOVS     r4,#0xaa
        0x00000924:    e04e        N.      B        0x9c4 ; ECAP_IRQHandler + 496
        0x00000926:    2003        .       MOVS     r0,#3
        0x00000928:    0200        ..      LSLS     r0,r0,#8
        0x0000092a:    9900        ..      LDR      r1,[sp,#0]
        0x0000092c:    2901        .)      CMP      r1,#1
        0x0000092e:    d055        U.      BEQ      0x9dc ; ECAP_IRQHandler + 520
        0x00000930:    3855        U8      SUBS     r0,r0,#0x55
        0x00000932:    e054        T.      B        0x9de ; ECAP_IRQHandler + 522
        0x00000934:    2003        .       MOVS     r0,#3
        0x00000936:    0200        ..      LSLS     r0,r0,#8
        0x00000938:    9900        ..      LDR      r1,[sp,#0]
        0x0000093a:    2900        .)      CMP      r1,#0
        0x0000093c:    d000        ..      BEQ      0x940 ; ECAP_IRQHandler + 364
        0x0000093e:    3856        V8      SUBS     r0,r0,#0x56
        0x00000940:    0401        ..      LSLS     r1,r0,#16
        0x00000942:    22a4        ."      MOVS     r2,#0xa4
        0x00000944:    50b9        .P      STR      r1,[r7,r2]
        0x00000946:    8738        8.      STRH     r0,[r7,#0x38]
        0x00000948:    9801        ..      LDR      r0,[sp,#4]
        0x0000094a:    2805        .(      CMP      r0,#5
        0x0000094c:    d043        C.      BEQ      0x9d6 ; ECAP_IRQHandler + 514
        0x0000094e:    e086        ..      B        0xa5e ; ECAP_IRQHandler + 650
        0x00000950:    2001        .       MOVS     r0,#1
        0x00000952:    0200        ..      LSLS     r0,r0,#8
        0x00000954:    9900        ..      LDR      r1,[sp,#0]
        0x00000956:    2901        .)      CMP      r1,#1
        0x00000958:    d000        ..      BEQ      0x95c ; ECAP_IRQHandler + 392
        0x0000095a:    3056        V0      ADDS     r0,r0,#0x56
        0x0000095c:    0401        ..      LSLS     r1,r0,#16
        0x0000095e:    22a4        ."      MOVS     r2,#0xa4
        0x00000960:    50b9        .P      STR      r1,[r7,r2]
        0x00000962:    8738        8.      STRH     r0,[r7,#0x38]
        0x00000964:    9801        ..      LDR      r0,[sp,#4]
        0x00000966:    2803        .(      CMP      r0,#3
        0x00000968:    d179        y.      BNE      0xa5e ; ECAP_IRQHandler + 650
        0x0000096a:    e034        4.      B        0x9d6 ; ECAP_IRQHandler + 514
        0x0000096c:    2001        .       MOVS     r0,#1
        0x0000096e:    0200        ..      LSLS     r0,r0,#8
        0x00000970:    9900        ..      LDR      r1,[sp,#0]
        0x00000972:    2900        .)      CMP      r1,#0
        0x00000974:    d04e        N.      BEQ      0xa14 ; ECAP_IRQHandler + 576
        0x00000976:    3055        U0      ADDS     r0,r0,#0x55
        0x00000978:    e04d        M.      B        0xa16 ; ECAP_IRQHandler + 578
        0x0000097a:    9800        ..      LDR      r0,[sp,#0]
        0x0000097c:    2801        .(      CMP      r0,#1
        0x0000097e:    d052        R.      BEQ      0xa26 ; ECAP_IRQHandler + 594
        0x00000980:    2003        .       MOVS     r0,#3
        0x00000982:    0200        ..      LSLS     r0,r0,#8
        0x00000984:    38ff        .8      SUBS     r0,r0,#0xff
        0x00000986:    e051        Q.      B        0xa2c ; ECAP_IRQHandler + 600
        0x00000988:    9800        ..      LDR      r0,[sp,#0]
        0x0000098a:    2800        .(      CMP      r0,#0
        0x0000098c:    d058        X.      BEQ      0xa40 ; ECAP_IRQHandler + 620
        0x0000098e:    2001        .       MOVS     r0,#1
        0x00000990:    0200        ..      LSLS     r0,r0,#8
        0x00000992:    30ff        .0      ADDS     r0,r0,#0xff
        0x00000994:    e057        W.      B        0xa46 ; ECAP_IRQHandler + 626
        0x00000996:    2003        .       MOVS     r0,#3
        0x00000998:    0204        ..      LSLS     r4,r0,#8
        0x0000099a:    0425        %.      LSLS     r5,r4,#16
        0x0000099c:    f001fe88    ....    BL       Trigger_update_micro_fig ; 0x26b0
        0x000009a0:    20a4        .       MOVS     r0,#0xa4
        0x000009a2:    503d        =P      STR      r5,[r7,r0]
        0x000009a4:    873c        <.      STRH     r4,[r7,#0x38]
        0x000009a6:    9801        ..      LDR      r0,[sp,#4]
        0x000009a8:    2804        .(      CMP      r0,#4
        0x000009aa:    d014        ..      BEQ      0x9d6 ; ECAP_IRQHandler + 514
        0x000009ac:    e057        W.      B        0xa5e ; ECAP_IRQHandler + 650
        0x000009ae:    2055        U       MOVS     r0,#0x55
        0x000009b0:    0401        ..      LSLS     r1,r0,#16
        0x000009b2:    22a4        ."      MOVS     r2,#0xa4
        0x000009b4:    50b9        .P      STR      r1,[r7,r2]
        0x000009b6:    8738        8.      STRH     r0,[r7,#0x38]
        0x000009b8:    9801        ..      LDR      r0,[sp,#4]
        0x000009ba:    2801        .(      CMP      r0,#1
        0x000009bc:    d14f        O.      BNE      0xa5e ; ECAP_IRQHandler + 650
        0x000009be:    e049        I.      B        0xa54 ; ECAP_IRQHandler + 640
        0x000009c0:    2001        .       MOVS     r0,#1
        0x000009c2:    0204        ..      LSLS     r4,r0,#8
        0x000009c4:    0425        %.      LSLS     r5,r4,#16
        0x000009c6:    f001fe73    ..s.    BL       Trigger_update_micro_fig ; 0x26b0
        0x000009ca:    20a4        .       MOVS     r0,#0xa4
        0x000009cc:    503d        =P      STR      r5,[r7,r0]
        0x000009ce:    873c        <.      STRH     r4,[r7,#0x38]
        0x000009d0:    9801        ..      LDR      r0,[sp,#4]
        0x000009d2:    2802        .(      CMP      r0,#2
        0x000009d4:    d143        C.      BNE      0xa5e ; ECAP_IRQHandler + 650
        0x000009d6:    4829        )H      LDR      r0,[pc,#164] ; [0xa7c] = 0x401b0004
        0x000009d8:    6800        .h      LDR      r0,[r0,#0]
        0x000009da:    e03d        =.      B        0xa58 ; ECAP_IRQHandler + 644
        0x000009dc:    38ab        .8      SUBS     r0,r0,#0xab
        0x000009de:    0401        ..      LSLS     r1,r0,#16
        0x000009e0:    22a4        ."      MOVS     r2,#0xa4
        0x000009e2:    50b9        .P      STR      r1,[r7,r2]
        0x000009e4:    8738        8.      STRH     r0,[r7,#0x38]
        0x000009e6:    9801        ..      LDR      r0,[sp,#4]
        0x000009e8:    2806        .(      CMP      r0,#6
        0x000009ea:    d138        8.      BNE      0xa5e ; ECAP_IRQHandler + 650
        0x000009ec:    e032        2.      B        0xa54 ; ECAP_IRQHandler + 640
        0x000009ee:    4827        'H      LDR      r0,[pc,#156] ; [0xa8c] = 0x355
        0x000009f0:    3055        U0      ADDS     r0,r0,#0x55
        0x000009f2:    0401        ..      LSLS     r1,r0,#16
        0x000009f4:    22a4        ."      MOVS     r2,#0xa4
        0x000009f6:    50b9        .P      STR      r1,[r7,r2]
        0x000009f8:    8738        8.      STRH     r0,[r7,#0x38]
        0x000009fa:    9801        ..      LDR      r0,[sp,#4]
        0x000009fc:    2805        .(      CMP      r0,#5
        0x000009fe:    d12e        ..      BNE      0xa5e ; ECAP_IRQHandler + 650
        0x00000a00:    e01b        ..      B        0xa3a ; ECAP_IRQHandler + 614
        0x00000a02:    2056        V       MOVS     r0,#0x56
        0x00000a04:    0401        ..      LSLS     r1,r0,#16
        0x00000a06:    22a4        ."      MOVS     r2,#0xa4
        0x00000a08:    50b9        .P      STR      r1,[r7,r2]
        0x00000a0a:    8738        8.      STRH     r0,[r7,#0x38]
        0x00000a0c:    9801        ..      LDR      r0,[sp,#4]
        0x00000a0e:    2803        .(      CMP      r0,#3
        0x00000a10:    d125        %.      BNE      0xa5e ; ECAP_IRQHandler + 650
        0x00000a12:    e01f        ..      B        0xa54 ; ECAP_IRQHandler + 640
        0x00000a14:    30ab        .0      ADDS     r0,r0,#0xab
        0x00000a16:    0401        ..      LSLS     r1,r0,#16
        0x00000a18:    22a4        ."      MOVS     r2,#0xa4
        0x00000a1a:    50b9        .P      STR      r1,[r7,r2]
        0x00000a1c:    8738        8.      STRH     r0,[r7,#0x38]
        0x00000a1e:    9801        ..      LDR      r0,[sp,#4]
        0x00000a20:    2806        .(      CMP      r0,#6
        0x00000a22:    d11c        ..      BNE      0xa5e ; ECAP_IRQHandler + 650
        0x00000a24:    e009        ..      B        0xa3a ; ECAP_IRQHandler + 614
        0x00000a26:    2001        .       MOVS     r0,#1
        0x00000a28:    0200        ..      LSLS     r0,r0,#8
        0x00000a2a:    30aa        .0      ADDS     r0,r0,#0xaa
        0x00000a2c:    0401        ..      LSLS     r1,r0,#16
        0x00000a2e:    22a4        ."      MOVS     r2,#0xa4
        0x00000a30:    50b9        .P      STR      r1,[r7,r2]
        0x00000a32:    8738        8.      STRH     r0,[r7,#0x38]
        0x00000a34:    9801        ..      LDR      r0,[sp,#4]
        0x00000a36:    2802        .(      CMP      r0,#2
        0x00000a38:    d111        ..      BNE      0xa5e ; ECAP_IRQHandler + 650
        0x00000a3a:    4810        .H      LDR      r0,[pc,#64] ; [0xa7c] = 0x401b0004
        0x00000a3c:    6880        .h      LDR      r0,[r0,#8]
        0x00000a3e:    e00b        ..      B        0xa58 ; ECAP_IRQHandler + 644
        0x00000a40:    2003        .       MOVS     r0,#3
        0x00000a42:    0200        ..      LSLS     r0,r0,#8
        0x00000a44:    38aa        .8      SUBS     r0,r0,#0xaa
        0x00000a46:    0401        ..      LSLS     r1,r0,#16
        0x00000a48:    22a4        ."      MOVS     r2,#0xa4
        0x00000a4a:    50b9        .P      STR      r1,[r7,r2]
        0x00000a4c:    8738        8.      STRH     r0,[r7,#0x38]
        0x00000a4e:    9801        ..      LDR      r0,[sp,#4]
        0x00000a50:    2804        .(      CMP      r0,#4
        0x00000a52:    d104        ..      BNE      0xa5e ; ECAP_IRQHandler + 650
        0x00000a54:    4809        .H      LDR      r0,[pc,#36] ; [0xa7c] = 0x401b0004
        0x00000a56:    6840        @h      LDR      r0,[r0,#4]
        0x00000a58:    0300        ..      LSLS     r0,r0,#12
        0x00000a5a:    1400        ..      ASRS     r0,r0,#16
        0x00000a5c:    e000        ..      B        0xa60 ; ECAP_IRQHandler + 652
        0x00000a5e:    480a        .H      LDR      r0,[pc,#40] ; [0xa88] = 0x7fff
        0x00000a60:    2198        .!      MOVS     r1,#0x98
        0x00000a62:    5078        xP      STR      r0,[r7,r1]
        0x00000a64:    4638        8F      MOV      r0,r7
        0x00000a66:    f000f973    ..s.    BL       HallSpeedEstimator ; 0xd50
        0x00000a6a:    9802        ..      LDR      r0,[sp,#8]
        0x00000a6c:    543e        >T      STRB     r6,[r7,r0]
        0x00000a6e:    b005        ..      ADD      sp,sp,#0x14
        0x00000a70:    bdf0        ..      POP      {r4-r7,pc}
        0x00000a72:    46c0        .F      MOV      r8,r8
    $d
    __arm_cp.2_0
        0x00000a74:    200000b4    ...     DCD    536871092
    __arm_cp.2_1
        0x00000a78:    50004150    PA.P    DCD    1342194000
    __arm_cp.2_2
        0x00000a7c:    401b0004    ...@    DCD    1075511300
    __arm_cp.2_3
        0x00000a80:    20000218    ...     DCD    536871448
    __arm_cp.2_4
        0x00000a84:    2000021c    ...     DCD    536871452
    __arm_cp.2_5
        0x00000a88:    00007fff    ....    DCD    32767
    __arm_cp.2_6
        0x00000a8c:    00000355    U...    DCD    853
    $t
    EPWM_IRQHandler
        0x00000a90:    4803        .H      LDR      r0,[pc,#12] ; [0xaa0] = 0x40040058
        0x00000a92:    6801        .h      LDR      r1,[r0,#0]
        0x00000a94:    07c9        ..      LSLS     r1,r1,#31
        0x00000a96:    d001        ..      BEQ      0xa9c ; EPWM_IRQHandler + 12
        0x00000a98:    2101        .!      MOVS     r1,#1
        0x00000a9a:    6001        .`      STR      r1,[r0,#0]
        0x00000a9c:    4770        pG      BX       lr
        0x00000a9e:    46c0        .F      MOV      r8,r8
    $d
    __arm_cp.3_0
        0x00000aa0:    40040058    X..@    DCD    1074004056
    $t
    FMC_Erase
        0x00000aa4:    490a        .I      LDR      r1,[pc,#40] ; [0xad0] = 0x5000c000
        0x00000aa6:    2222        ""      MOVS     r2,#0x22
        0x00000aa8:    60ca        .`      STR      r2,[r1,#0xc]
        0x00000aaa:    6048        H`      STR      r0,[r1,#4]
        0x00000aac:    2001        .       MOVS     r0,#1
        0x00000aae:    6108        .a      STR      r0,[r1,#0x10]
        0x00000ab0:    6908        .i      LDR      r0,[r1,#0x10]
        0x00000ab2:    07c0        ..      LSLS     r0,r0,#31
        0x00000ab4:    d1fc        ..      BNE      0xab0 ; FMC_Erase + 12
        0x00000ab6:    6808        .h      LDR      r0,[r1,#0]
        0x00000ab8:    0640        @.      LSLS     r0,r0,#25
        0x00000aba:    d401        ..      BMI      0xac0 ; FMC_Erase + 28
        0x00000abc:    2000        .       MOVS     r0,#0
        0x00000abe:    4770        pG      BX       lr
        0x00000ac0:    6808        .h      LDR      r0,[r1,#0]
        0x00000ac2:    2240        @"      MOVS     r2,#0x40
        0x00000ac4:    4302        .C      ORRS     r2,r2,r0
        0x00000ac6:    600a        .`      STR      r2,[r1,#0]
        0x00000ac8:    2000        .       MOVS     r0,#0
        0x00000aca:    43c0        .C      MVNS     r0,r0
        0x00000acc:    4770        pG      BX       lr
        0x00000ace:    46c0        .F      MOV      r8,r8
    $d
    __arm_cp.1_0
        0x00000ad0:    5000c000    ...P    DCD    1342226432
    $t
    FMC_Read
        0x00000ad4:    4910        .I      LDR      r1,[pc,#64] ; [0xb18] = 0x5000c010
        0x00000ad6:    1f0a        ..      SUBS     r2,r1,#4
        0x00000ad8:    2300        .#      MOVS     r3,#0
        0x00000ada:    6013        .`      STR      r3,[r2,#0]
        0x00000adc:    460a        .F      MOV      r2,r1
        0x00000ade:    3a0c        .:      SUBS     r2,r2,#0xc
        0x00000ae0:    6010        .`      STR      r0,[r2,#0]
        0x00000ae2:    2001        .       MOVS     r0,#1
        0x00000ae4:    6008        .`      STR      r0,[r1,#0]
        0x00000ae6:    6808        .h      LDR      r0,[r1,#0]
        0x00000ae8:    07c0        ..      LSLS     r0,r0,#31
        0x00000aea:    d1fc        ..      BNE      0xae6 ; FMC_Read + 18
        0x00000aec:    3908        .9      SUBS     r1,r1,#8
        0x00000aee:    6808        .h      LDR      r0,[r1,#0]
        0x00000af0:    4770        pG      BX       lr
        0x00000af2:    46c0        .F      MOV      r8,r8
    FMC_Write
        0x00000af4:    b510        ..      PUSH     {r4,lr}
        0x00000af6:    4a08        .J      LDR      r2,[pc,#32] ; [0xb18] = 0x5000c010
        0x00000af8:    1f13        ..      SUBS     r3,r2,#4
        0x00000afa:    2421        !$      MOVS     r4,#0x21
        0x00000afc:    601c        .`      STR      r4,[r3,#0]
        0x00000afe:    4613        .F      MOV      r3,r2
        0x00000b00:    3b0c        .;      SUBS     r3,r3,#0xc
        0x00000b02:    6018        .`      STR      r0,[r3,#0]
        0x00000b04:    4610        .F      MOV      r0,r2
        0x00000b06:    3808        .8      SUBS     r0,r0,#8
        0x00000b08:    6001        .`      STR      r1,[r0,#0]
        0x00000b0a:    2001        .       MOVS     r0,#1
        0x00000b0c:    6010        .`      STR      r0,[r2,#0]
        0x00000b0e:    6810        .h      LDR      r0,[r2,#0]
        0x00000b10:    07c0        ..      LSLS     r0,r0,#31
        0x00000b12:    d1fc        ..      BNE      0xb0e ; FMC_Write + 26
        0x00000b14:    bd10        ..      POP      {r4,pc}
        0x00000b16:    46c0        .F      MOV      r8,r8
    $d
    __arm_cp.13_0
        0x00000b18:    5000c010    ...P    DCD    1342226448
    $t
    Fix_Phase_Angle_M0
        0x00000b1c:    b580        ..      PUSH     {r7,lr}
        0x00000b1e:    2244        D"      MOVS     r2,#0x44
        0x00000b20:    4971        qI      LDR      r1,[pc,#452] ; [0xce8] = 0x200000b4
        0x00000b22:    5c8a        .\      LDRB     r2,[r1,r2]
        0x00000b24:    2373        s#      MOVS     r3,#0x73
        0x00000b26:    5ccb        .\      LDRB     r3,[r1,r3]
        0x00000b28:    1e52        R.      SUBS     r2,r2,#1
        0x00000b2a:    2b01        .+      CMP      r3,#1
        0x00000b2c:    d114        ..      BNE      0xb58 ; Fix_Phase_Angle_M0 + 60
        0x00000b2e:    2a05        .*      CMP      r2,#5
        0x00000b30:    d826        &.      BHI      0xb80 ; Fix_Phase_Angle_M0 + 100
        0x00000b32:    46c0        .F      MOV      r8,r8
        0x00000b34:    447a        zD      ADD      r2,r2,pc
        0x00000b36:    7912        .y      LDRB     r2,[r2,#4]
        0x00000b38:    0052        R.      LSLS     r2,r2,#1
        0x00000b3a:    4497        .D      ADD      pc,pc,r2
    $d
        0x00000b3c:    503b6702    .g;P    DCD    1346070274
        0x00000b40:    7c24        $|      DCW    31780
    $t
        0x00000b42:    4b6c        lK      LDR      r3,[pc,#432] ; [0xcf4] = 0x3ff
        0x00000b44:    18c2        ..      ADDS     r2,r0,r3
        0x00000b46:    3a55        U:      SUBS     r2,r2,#0x55
        0x00000b48:    870a        ..      STRH     r2,[r1,#0x38]
        0x00000b4a:    b212        ..      SXTH     r2,r2
        0x00000b4c:    429a        .B      CMP      r2,r3
        0x00000b4e:    dc00        ..      BGT      0xb52 ; Fix_Phase_Angle_M0 + 54
        0x00000b50:    e0a2        ..      B        0xc98 ; Fix_Phase_Angle_M0 + 380
        0x00000b52:    22ff        ."      MOVS     r2,#0xff
        0x00000b54:    43d2        .C      MVNS     r2,r2
        0x00000b56:    e0b8        ..      B        0xcca ; Fix_Phase_Angle_M0 + 430
        0x00000b58:    2a05        .*      CMP      r2,#5
        0x00000b5a:    d811        ..      BHI      0xb80 ; Fix_Phase_Angle_M0 + 100
        0x00000b5c:    447a        zD      ADD      r2,r2,pc
        0x00000b5e:    7912        .y      LDRB     r2,[r2,#4]
        0x00000b60:    0052        R.      LSLS     r2,r2,#1
        0x00000b62:    4497        .D      ADD      pc,pc,r2
    $d
        0x00000b64:    47305e02    .^0G    DCD    1194352130
        0x00000b68:    731b        .s      DCW    29467
    $t
        0x00000b6a:    4a66        fJ      LDR      r2,[pc,#408] ; [0xd04] = 0xfffffc56
        0x00000b6c:    1a12        ..      SUBS     r2,r2,r0
        0x00000b6e:    870a        ..      STRH     r2,[r1,#0x38]
        0x00000b70:    b212        ..      SXTH     r2,r2
        0x00000b72:    4b60        `K      LDR      r3,[pc,#384] ; [0xcf4] = 0x3ff
        0x00000b74:    429a        .B      CMP      r2,r3
        0x00000b76:    dc00        ..      BGT      0xb7a ; Fix_Phase_Angle_M0 + 94
        0x00000b78:    e092        ..      B        0xca0 ; Fix_Phase_Angle_M0 + 388
        0x00000b7a:    4a63        cJ      LDR      r2,[pc,#396] ; [0xd08] = 0xf856
        0x00000b7c:    1a10        ..      SUBS     r0,r2,r0
        0x00000b7e:    e0a6        ..      B        0xcce ; Fix_Phase_Angle_M0 + 434
        0x00000b80:    f001fb70    ..p.    BL       Stop_Motor_PWMOUT_OFF ; 0x2264
        0x00000b84:    bd80        ..      POP      {r7,pc}
        0x00000b86:    2203        ."      MOVS     r2,#3
        0x00000b88:    0212        ..      LSLS     r2,r2,#8
        0x00000b8a:    1882        ..      ADDS     r2,r0,r2
        0x00000b8c:    870a        ..      STRH     r2,[r1,#0x38]
        0x00000b8e:    b212        ..      SXTH     r2,r2
        0x00000b90:    4b58        XK      LDR      r3,[pc,#352] ; [0xcf4] = 0x3ff
        0x00000b92:    429a        .B      CMP      r2,r3
        0x00000b94:    dd64        d.      BLE      0xc60 ; Fix_Phase_Angle_M0 + 324
        0x00000b96:    22ff        ."      MOVS     r2,#0xff
        0x00000b98:    0212        ..      LSLS     r2,r2,#8
        0x00000b9a:    e097        ..      B        0xccc ; Fix_Phase_Angle_M0 + 432
        0x00000b9c:    22ff        ."      MOVS     r2,#0xff
        0x00000b9e:    43d2        .C      MVNS     r2,r2
        0x00000ba0:    1a12        ..      SUBS     r2,r2,r0
        0x00000ba2:    32ab        .2      ADDS     r2,r2,#0xab
        0x00000ba4:    870a        ..      STRH     r2,[r1,#0x38]
        0x00000ba6:    b213        ..      SXTH     r3,r2
        0x00000ba8:    4a52        RJ      LDR      r2,[pc,#328] ; [0xcf4] = 0x3ff
        0x00000baa:    4293        .B      CMP      r3,r2
        0x00000bac:    dd5c        \.      BLE      0xc68 ; Fix_Phase_Angle_M0 + 332
        0x00000bae:    4a54        TJ      LDR      r2,[pc,#336] ; [0xd00] = 0xfbab
        0x00000bb0:    1a10        ..      SUBS     r0,r2,r0
        0x00000bb2:    e08c        ..      B        0xcce ; Fix_Phase_Angle_M0 + 434
        0x00000bb4:    4b4f        OK      LDR      r3,[pc,#316] ; [0xcf4] = 0x3ff
        0x00000bb6:    18c2        ..      ADDS     r2,r0,r3
        0x00000bb8:    3256        V2      ADDS     r2,r2,#0x56
        0x00000bba:    870a        ..      STRH     r2,[r1,#0x38]
        0x00000bbc:    b212        ..      SXTH     r2,r2
        0x00000bbe:    429a        .B      CMP      r2,r3
        0x00000bc0:    dd57        W.      BLE      0xc72 ; Fix_Phase_Angle_M0 + 342
        0x00000bc2:    2255        U"      MOVS     r2,#0x55
        0x00000bc4:    e082        ..      B        0xccc ; Fix_Phase_Angle_M0 + 432
        0x00000bc6:    4a4f        OJ      LDR      r2,[pc,#316] ; [0xd04] = 0xfffffc56
        0x00000bc8:    1a12        ..      SUBS     r2,r2,r0
        0x00000bca:    32aa        .2      ADDS     r2,r2,#0xaa
        0x00000bcc:    870a        ..      STRH     r2,[r1,#0x38]
        0x00000bce:    b212        ..      SXTH     r2,r2
        0x00000bd0:    4b48        HK      LDR      r3,[pc,#288] ; [0xcf4] = 0x3ff
        0x00000bd2:    429a        .B      CMP      r2,r3
        0x00000bd4:    dd52        R.      BLE      0xc7c ; Fix_Phase_Angle_M0 + 352
        0x00000bd6:    4a4d        MJ      LDR      r2,[pc,#308] ; [0xd0c] = 0xfffff856
        0x00000bd8:    32aa        .2      ADDS     r2,r2,#0xaa
        0x00000bda:    1a10        ..      SUBS     r0,r2,r0
        0x00000bdc:    e077        w.      B        0xcce ; Fix_Phase_Angle_M0 + 434
        0x00000bde:    2203        ."      MOVS     r2,#3
        0x00000be0:    0212        ..      LSLS     r2,r2,#8
        0x00000be2:    1882        ..      ADDS     r2,r0,r2
        0x00000be4:    3aab        .:      SUBS     r2,r2,#0xab
        0x00000be6:    870a        ..      STRH     r2,[r1,#0x38]
        0x00000be8:    b212        ..      SXTH     r2,r2
        0x00000bea:    4b42        BK      LDR      r3,[pc,#264] ; [0xcf4] = 0x3ff
        0x00000bec:    429a        .B      CMP      r2,r3
        0x00000bee:    dd49        I.      BLE      0xc84 ; Fix_Phase_Angle_M0 + 360
        0x00000bf0:    4a3e        >J      LDR      r2,[pc,#248] ; [0xcec] = 0xfffffdab
        0x00000bf2:    e06a        j.      B        0xcca ; Fix_Phase_Angle_M0 + 430
        0x00000bf4:    22ff        ."      MOVS     r2,#0xff
        0x00000bf6:    43d2        .C      MVNS     r2,r2
        0x00000bf8:    1a12        ..      SUBS     r2,r2,r0
        0x00000bfa:    870a        ..      STRH     r2,[r1,#0x38]
        0x00000bfc:    b212        ..      SXTH     r2,r2
        0x00000bfe:    4b3d        =K      LDR      r3,[pc,#244] ; [0xcf4] = 0x3ff
        0x00000c00:    429a        .B      CMP      r2,r3
        0x00000c02:    dd43        C.      BLE      0xc8c ; Fix_Phase_Angle_M0 + 368
        0x00000c04:    4a3d        =J      LDR      r2,[pc,#244] ; [0xcfc] = 0xfffffbab
        0x00000c06:    3aab        .:      SUBS     r2,r2,#0xab
        0x00000c08:    1a10        ..      SUBS     r0,r2,r0
        0x00000c0a:    e060        `.      B        0xcce ; Fix_Phase_Angle_M0 + 434
        0x00000c0c:    2205        ."      MOVS     r2,#5
        0x00000c0e:    0212        ..      LSLS     r2,r2,#8
        0x00000c10:    1882        ..      ADDS     r2,r0,r2
        0x00000c12:    870a        ..      STRH     r2,[r1,#0x38]
        0x00000c14:    b212        ..      SXTH     r2,r2
        0x00000c16:    4b37        7K      LDR      r3,[pc,#220] ; [0xcf4] = 0x3ff
        0x00000c18:    429a        .B      CMP      r2,r3
        0x00000c1a:    dd46        F.      BLE      0xcaa ; Fix_Phase_Angle_M0 + 398
        0x00000c1c:    2201        ."      MOVS     r2,#1
        0x00000c1e:    0212        ..      LSLS     r2,r2,#8
        0x00000c20:    e054        T.      B        0xccc ; Fix_Phase_Angle_M0 + 432
        0x00000c22:    4a32        2J      LDR      r2,[pc,#200] ; [0xcec] = 0xfffffdab
        0x00000c24:    1a12        ..      SUBS     r2,r2,r0
        0x00000c26:    870a        ..      STRH     r2,[r1,#0x38]
        0x00000c28:    b212        ..      SXTH     r2,r2
        0x00000c2a:    4b32        2K      LDR      r3,[pc,#200] ; [0xcf4] = 0x3ff
        0x00000c2c:    429a        .B      CMP      r2,r3
        0x00000c2e:    dd41        A.      BLE      0xcb4 ; Fix_Phase_Angle_M0 + 408
        0x00000c30:    4a2f        /J      LDR      r2,[pc,#188] ; [0xcf0] = 0xf9ab
        0x00000c32:    1a10        ..      SUBS     r0,r2,r0
        0x00000c34:    e04b        K.      B        0xcce ; Fix_Phase_Angle_M0 + 434
        0x00000c36:    2205        ."      MOVS     r2,#5
        0x00000c38:    0212        ..      LSLS     r2,r2,#8
        0x00000c3a:    1882        ..      ADDS     r2,r0,r2
        0x00000c3c:    32aa        .2      ADDS     r2,r2,#0xaa
        0x00000c3e:    870a        ..      STRH     r2,[r1,#0x38]
        0x00000c40:    b212        ..      SXTH     r2,r2
        0x00000c42:    4b2c        ,K      LDR      r3,[pc,#176] ; [0xcf4] = 0x3ff
        0x00000c44:    429a        .B      CMP      r2,r3
        0x00000c46:    dd3c        <.      BLE      0xcc2 ; Fix_Phase_Angle_M0 + 422
        0x00000c48:    2201        ."      MOVS     r2,#1
        0x00000c4a:    e03d        =.      B        0xcc8 ; Fix_Phase_Angle_M0 + 428
        0x00000c4c:    4a27        'J      LDR      r2,[pc,#156] ; [0xcec] = 0xfffffdab
        0x00000c4e:    1a12        ..      SUBS     r2,r2,r0
        0x00000c50:    32ab        .2      ADDS     r2,r2,#0xab
        0x00000c52:    870a        ..      STRH     r2,[r1,#0x38]
        0x00000c54:    b212        ..      SXTH     r2,r2
        0x00000c56:    4b27        'K      LDR      r3,[pc,#156] ; [0xcf4] = 0x3ff
        0x00000c58:    429a        .B      CMP      r2,r3
        0x00000c5a:    dd3e        >.      BLE      0xcda ; Fix_Phase_Angle_M0 + 446
        0x00000c5c:    4a26        &J      LDR      r2,[pc,#152] ; [0xcf8] = 0xfffff9ab
        0x00000c5e:    e02d        -.      B        0xcbc ; Fix_Phase_Angle_M0 + 416
        0x00000c60:    2a00        .*      CMP      r2,#0
        0x00000c62:    d535        5.      BPL      0xcd0 ; Fix_Phase_Angle_M0 + 436
        0x00000c64:    4a2a        *J      LDR      r2,[pc,#168] ; [0xd10] = 0x655
        0x00000c66:    e007        ..      B        0xc78 ; Fix_Phase_Angle_M0 + 348
        0x00000c68:    2b00        .+      CMP      r3,#0
        0x00000c6a:    d531        1.      BPL      0xcd0 ; Fix_Phase_Angle_M0 + 436
        0x00000c6c:    3a54        T:      SUBS     r2,r2,#0x54
        0x00000c6e:    1a10        ..      SUBS     r0,r2,r0
        0x00000c70:    e02d        -.      B        0xcce ; Fix_Phase_Angle_M0 + 434
        0x00000c72:    2a00        .*      CMP      r2,#0
        0x00000c74:    d52c        ,.      BPL      0xcd0 ; Fix_Phase_Angle_M0 + 436
        0x00000c76:    4a27        'J      LDR      r2,[pc,#156] ; [0xd14] = 0x7aa
        0x00000c78:    32ab        .2      ADDS     r2,r2,#0xab
        0x00000c7a:    e027        '.      B        0xccc ; Fix_Phase_Angle_M0 + 432
        0x00000c7c:    2a00        .*      CMP      r2,#0
        0x00000c7e:    d527        '.      BPL      0xcd0 ; Fix_Phase_Angle_M0 + 436
        0x00000c80:    2201        ."      MOVS     r2,#1
        0x00000c82:    e006        ..      B        0xc92 ; Fix_Phase_Angle_M0 + 374
        0x00000c84:    2a00        .*      CMP      r2,#0
        0x00000c86:    d523        #.      BPL      0xcd0 ; Fix_Phase_Angle_M0 + 436
        0x00000c88:    4a21        !J      LDR      r2,[pc,#132] ; [0xd10] = 0x655
        0x00000c8a:    e01f        ..      B        0xccc ; Fix_Phase_Angle_M0 + 432
        0x00000c8c:    2a00        .*      CMP      r2,#0
        0x00000c8e:    d51f        ..      BPL      0xcd0 ; Fix_Phase_Angle_M0 + 436
        0x00000c90:    2203        ."      MOVS     r2,#3
        0x00000c92:    0212        ..      LSLS     r2,r2,#8
        0x00000c94:    1a10        ..      SUBS     r0,r2,r0
        0x00000c96:    e01a        ..      B        0xcce ; Fix_Phase_Angle_M0 + 434
        0x00000c98:    2a00        .*      CMP      r2,#0
        0x00000c9a:    d519        ..      BPL      0xcd0 ; Fix_Phase_Angle_M0 + 436
        0x00000c9c:    4a1d        .J      LDR      r2,[pc,#116] ; [0xd14] = 0x7aa
        0x00000c9e:    e015        ..      B        0xccc ; Fix_Phase_Angle_M0 + 432
        0x00000ca0:    2a00        .*      CMP      r2,#0
        0x00000ca2:    d515        ..      BPL      0xcd0 ; Fix_Phase_Angle_M0 + 436
        0x00000ca4:    2256        V"      MOVS     r2,#0x56
        0x00000ca6:    1a10        ..      SUBS     r0,r2,r0
        0x00000ca8:    e011        ..      B        0xcce ; Fix_Phase_Angle_M0 + 434
        0x00000caa:    2a00        .*      CMP      r2,#0
        0x00000cac:    d510        ..      BPL      0xcd0 ; Fix_Phase_Angle_M0 + 436
        0x00000cae:    2209        ."      MOVS     r2,#9
        0x00000cb0:    0212        ..      LSLS     r2,r2,#8
        0x00000cb2:    e00b        ..      B        0xccc ; Fix_Phase_Angle_M0 + 432
        0x00000cb4:    2a00        .*      CMP      r2,#0
        0x00000cb6:    d50b        ..      BPL      0xcd0 ; Fix_Phase_Angle_M0 + 436
        0x00000cb8:    2201        ."      MOVS     r2,#1
        0x00000cba:    0212        ..      LSLS     r2,r2,#8
        0x00000cbc:    32ab        .2      ADDS     r2,r2,#0xab
        0x00000cbe:    1a10        ..      SUBS     r0,r2,r0
        0x00000cc0:    e005        ..      B        0xcce ; Fix_Phase_Angle_M0 + 434
        0x00000cc2:    2a00        .*      CMP      r2,#0
        0x00000cc4:    d504        ..      BPL      0xcd0 ; Fix_Phase_Angle_M0 + 436
        0x00000cc6:    2209        ."      MOVS     r2,#9
        0x00000cc8:    0212        ..      LSLS     r2,r2,#8
        0x00000cca:    32aa        .2      ADDS     r2,r2,#0xaa
        0x00000ccc:    1880        ..      ADDS     r0,r0,r2
        0x00000cce:    8708        ..      STRH     r0,[r1,#0x38]
        0x00000cd0:    8f08        ..      LDRH     r0,[r1,#0x38]
        0x00000cd2:    0400        ..      LSLS     r0,r0,#16
        0x00000cd4:    22a4        ."      MOVS     r2,#0xa4
        0x00000cd6:    5088        .P      STR      r0,[r1,r2]
        0x00000cd8:    bd80        ..      POP      {r7,pc}
        0x00000cda:    2a00        .*      CMP      r2,#0
        0x00000cdc:    d5f8        ..      BPL      0xcd0 ; Fix_Phase_Angle_M0 + 436
        0x00000cde:    2203        ."      MOVS     r2,#3
        0x00000ce0:    0212        ..      LSLS     r2,r2,#8
        0x00000ce2:    3aaa        .:      SUBS     r2,r2,#0xaa
        0x00000ce4:    1a10        ..      SUBS     r0,r2,r0
        0x00000ce6:    e7f2        ..      B        0xcce ; Fix_Phase_Angle_M0 + 434
    $d
    __arm_cp.2_0
        0x00000ce8:    200000b4    ...     DCD    536871092
    __arm_cp.2_1
        0x00000cec:    fffffdab    ....    DCD    4294966699
    __arm_cp.2_2
        0x00000cf0:    0000f9ab    ....    DCD    63915
    __arm_cp.2_3
        0x00000cf4:    000003ff    ....    DCD    1023
    __arm_cp.2_4
        0x00000cf8:    fffff9ab    ....    DCD    4294965675
    __arm_cp.2_5
        0x00000cfc:    fffffbab    ....    DCD    4294966187
    __arm_cp.2_6
        0x00000d00:    0000fbab    ....    DCD    64427
    __arm_cp.2_7
        0x00000d04:    fffffc56    V...    DCD    4294966358
    __arm_cp.2_8
        0x00000d08:    0000f856    V...    DCD    63574
    __arm_cp.2_9
        0x00000d0c:    fffff856    V...    DCD    4294965334
    __arm_cp.2_10
        0x00000d10:    00000655    U...    DCD    1621
    __arm_cp.2_11
        0x00000d14:    000007aa    ....    DCD    1962
    $t
    GDMA0_IRQHandler
        0x00000d18:    b580        ..      PUSH     {r7,lr}
        0x00000d1a:    2001        .       MOVS     r0,#1
        0x00000d1c:    0481        ..      LSLS     r1,r0,#18
        0x00000d1e:    4a05        .J      LDR      r2,[pc,#20] ; [0xd34] = 0x50008000
        0x00000d20:    6813        .h      LDR      r3,[r2,#0]
        0x00000d22:    438b        .C      BICS     r3,r3,r1
        0x00000d24:    6013        .`      STR      r3,[r2,#0]
        0x00000d26:    6811        .h      LDR      r1,[r2,#0]
        0x00000d28:    4301        .C      ORRS     r1,r1,r0
        0x00000d2a:    6011        .`      STR      r1,[r2,#0]
        0x00000d2c:    4802        .H      LDR      r0,[pc,#8] ; [0xd38] = 0x2000017c
        0x00000d2e:    f000feef    ....    BL       Request_decode ; 0x1b10
        0x00000d32:    bd80        ..      POP      {r7,pc}
    $d
    __arm_cp.33_0
        0x00000d34:    50008000    ...P    DCD    1342210048
    __arm_cp.33_1
        0x00000d38:    2000017c    |..     DCD    536871292
    $t
    GDMA1_IRQHandler
        0x00000d3c:    2001        .       MOVS     r0,#1
        0x00000d3e:    0480        ..      LSLS     r0,r0,#18
        0x00000d40:    4902        .I      LDR      r1,[pc,#8] ; [0xd4c] = 0x50008020
        0x00000d42:    680a        .h      LDR      r2,[r1,#0]
        0x00000d44:    4382        .C      BICS     r2,r2,r0
        0x00000d46:    600a        .`      STR      r2,[r1,#0]
        0x00000d48:    4770        pG      BX       lr
        0x00000d4a:    46c0        .F      MOV      r8,r8
    $d
    __arm_cp.34_0
        0x00000d4c:    50008020     ..P    DCD    1342210080
    $t
    HallSpeedEstimator
        0x00000d50:    b5f0        ..      PUSH     {r4-r7,lr}
        0x00000d52:    b083        ..      SUB      sp,sp,#0xc
        0x00000d54:    4606        .F      MOV      r6,r0
        0x00000d56:    2098        .       MOVS     r0,#0x98
        0x00000d58:    5832        2X      LDR      r2,[r6,r0]
        0x00000d5a:    2046        F       MOVS     r0,#0x46
        0x00000d5c:    5c33        3\      LDRB     r3,[r6,r0]
        0x00000d5e:    2073        s       MOVS     r0,#0x73
        0x00000d60:    5c30        0\      LDRB     r0,[r6,r0]
        0x00000d62:    9002        ..      STR      r0,[sp,#8]
        0x00000d64:    4635        5F      MOV      r5,r6
        0x00000d66:    3598        .5      ADDS     r5,r5,#0x98
        0x00000d68:    2700        .'      MOVS     r7,#0
        0x00000d6a:    4825        %H      LDR      r0,[pc,#148] ; [0xe00] = 0x7ff0
        0x00000d6c:    4282        .B      CMP      r2,r0
        0x00000d6e:    dc0e        ..      BGT      0xd8e ; HallSpeedEstimator + 62
        0x00000d70:    7e29        )~      LDRB     r1,[r5,#0x18]
        0x00000d72:    2901        .)      CMP      r1,#1
        0x00000d74:    d00b        ..      BEQ      0xd8e ; HallSpeedEstimator + 62
        0x00000d76:    4282        .B      CMP      r2,r0
        0x00000d78:    d009        ..      BEQ      0xd8e ; HallSpeedEstimator + 62
        0x00000d7a:    2a01        .*      CMP      r2,#1
        0x00000d7c:    db07        ..      BLT      0xd8e ; HallSpeedEstimator + 62
        0x00000d7e:    6968        hi      LDR      r0,[r5,#0x14]
        0x00000d80:    4920         I      LDR      r1,[pc,#128] ; [0xe04] = 0x50014000
        0x00000d82:    6008        .`      STR      r0,[r1,#0]
        0x00000d84:    604a        J`      STR      r2,[r1,#4]
        0x00000d86:    bf00        ..      NOP      
        0x00000d88:    bf00        ..      NOP      
        0x00000d8a:    6888        .h      LDR      r0,[r1,#8]
        0x00000d8c:    b207        ..      SXTH     r7,r0
        0x00000d8e:    4634        4F      MOV      r4,r6
        0x00000d90:    34b8        .4      ADDS     r4,r4,#0xb8
        0x00000d92:    2f01        ./      CMP      r7,#1
        0x00000d94:    dc08        ..      BGT      0xda8 ; HallSpeedEstimator + 88
        0x00000d96:    2000        .       MOVS     r0,#0
        0x00000d98:    7728        (w      STRB     r0,[r5,#0x1c]
        0x00000d9a:    2055        U       MOVS     r0,#0x55
        0x00000d9c:    9201        ..      STR      r2,[sp,#4]
        0x00000d9e:    9300        ..      STR      r3,[sp,#0]
        0x00000da0:    f7fffebc    ....    BL       Fix_Phase_Angle_M0 ; 0xb1c
        0x00000da4:    9b00        ..      LDR      r3,[sp,#0]
        0x00000da6:    9a01        ..      LDR      r2,[sp,#4]
        0x00000da8:    7820         x      LDRB     r0,[r4,#0]
        0x00000daa:    21ff        .!      MOVS     r1,#0xff
        0x00000dac:    3192        .1      ADDS     r1,r1,#0x92
        0x00000dae:    428f        .B      CMP      r7,r1
        0x00000db0:    db03        ..      BLT      0xdba ; HallSpeedEstimator + 106
        0x00000db2:    2800        .(      CMP      r0,#0
        0x00000db4:    d101        ..      BNE      0xdba ; HallSpeedEstimator + 106
        0x00000db6:    2001        .       MOVS     r0,#1
        0x00000db8:    e004        ..      B        0xdc4 ; HallSpeedEstimator + 116
        0x00000dba:    2fc7        ./      CMP      r7,#0xc7
        0x00000dbc:    dc03        ..      BGT      0xdc6 ; HallSpeedEstimator + 118
        0x00000dbe:    2801        .(      CMP      r0,#1
        0x00000dc0:    d101        ..      BNE      0xdc6 ; HallSpeedEstimator + 118
        0x00000dc2:    2000        .       MOVS     r0,#0
        0x00000dc4:    7020         p      STRB     r0,[r4,#0]
        0x00000dc6:    2b00        .+      CMP      r3,#0
        0x00000dc8:    d100        ..      BNE      0xdcc ; HallSpeedEstimator + 124
        0x00000dca:    427f        .B      RSBS     r7,r7,#0
        0x00000dcc:    7820         x      LDRB     r0,[r4,#0]
        0x00000dce:    2800        .(      CMP      r0,#0
        0x00000dd0:    d005        ..      BEQ      0xdde ; HallSpeedEstimator + 142
        0x00000dd2:    2034        4       MOVS     r0,#0x34
        0x00000dd4:    5e30        0^      LDRSH    r0,[r6,r0]
        0x00000dd6:    2103        .!      MOVS     r1,#3
        0x00000dd8:    4341        AC      MULS     r1,r0,r1
        0x00000dda:    19c8        ..      ADDS     r0,r1,r7
        0x00000ddc:    1087        ..      ASRS     r7,r0,#2
        0x00000dde:    86b7        ..      STRH     r7,[r6,#0x34]
        0x00000de0:    9802        ..      LDR      r0,[sp,#8]
        0x00000de2:    2801        .(      CMP      r0,#1
        0x00000de4:    d104        ..      BNE      0xdf0 ; HallSpeedEstimator + 160
        0x00000de6:    2b00        .+      CMP      r3,#0
        0x00000de8:    d004        ..      BEQ      0xdf4 ; HallSpeedEstimator + 164
        0x00000dea:    6928        (i      LDR      r0,[r5,#0x10]
        0x00000dec:    4347        GC      MULS     r7,r0,r7
        0x00000dee:    e002        ..      B        0xdf6 ; HallSpeedEstimator + 166
        0x00000df0:    2b01        .+      CMP      r3,#1
        0x00000df2:    d1fa        ..      BNE      0xdea ; HallSpeedEstimator + 154
        0x00000df4:    2700        .'      MOVS     r7,#0
        0x00000df6:    606a        j`      STR      r2,[r5,#4]
        0x00000df8:    60af        .`      STR      r7,[r5,#8]
        0x00000dfa:    b003        ..      ADD      sp,sp,#0xc
        0x00000dfc:    bdf0        ..      POP      {r4-r7,pc}
        0x00000dfe:    46c0        .F      MOV      r8,r8
    $d
    __arm_cp.1_0
        0x00000e00:    00007ff0    ....    DCD    32752
    __arm_cp.1_1
        0x00000e04:    50014000    .@.P    DCD    1342259200
    $t
    Initialize_ACMP0
        0x00000e08:    b510        ..      PUSH     {r4,lr}
        0x00000e0a:    2101        .!      MOVS     r1,#1
        0x00000e0c:    078b        ..      LSLS     r3,r1,#30
        0x00000e0e:    4aaf        .J      LDR      r2,[pc,#700] ; [0x10cc] = 0x50000208
        0x00000e10:    6814        .h      LDR      r4,[r2,#0]
        0x00000e12:    431c        .C      ORRS     r4,r4,r3
        0x00000e14:    6014        .`      STR      r4,[r2,#0]
        0x00000e16:    4aae        .J      LDR      r2,[pc,#696] ; [0x10d0] = 0x5000000c
        0x00000e18:    6814        .h      LDR      r4,[r2,#0]
        0x00000e1a:    431c        .C      ORRS     r4,r4,r3
        0x00000e1c:    6014        .`      STR      r4,[r2,#0]
        0x00000e1e:    6814        .h      LDR      r4,[r2,#0]
        0x00000e20:    439c        .C      BICS     r4,r4,r3
        0x00000e22:    6014        .`      STR      r4,[r2,#0]
        0x00000e24:    4a19        .J      LDR      r2,[pc,#100] ; [0xe8c] = 0x400d0000
        0x00000e26:    6814        .h      LDR      r4,[r2,#0]
        0x00000e28:    431c        .C      ORRS     r4,r4,r3
        0x00000e2a:    6014        .`      STR      r4,[r2,#0]
        0x00000e2c:    2303        .#      MOVS     r3,#3
        0x00000e2e:    061b        ..      LSLS     r3,r3,#24
        0x00000e30:    6814        .h      LDR      r4,[r2,#0]
        0x00000e32:    431c        .C      ORRS     r4,r4,r3
        0x00000e34:    6014        .`      STR      r4,[r2,#0]
        0x00000e36:    054b        K.      LSLS     r3,r1,#21
        0x00000e38:    6814        .h      LDR      r4,[r2,#0]
        0x00000e3a:    431c        .C      ORRS     r4,r4,r3
        0x00000e3c:    6014        .`      STR      r4,[r2,#0]
        0x00000e3e:    6813        .h      LDR      r3,[r2,#0]
        0x00000e40:    2408        .$      MOVS     r4,#8
        0x00000e42:    431c        .C      ORRS     r4,r4,r3
        0x00000e44:    6014        .`      STR      r4,[r2,#0]
        0x00000e46:    07cb        ..      LSLS     r3,r1,#31
        0x00000e48:    6814        .h      LDR      r4,[r2,#0]
        0x00000e4a:    439c        .C      BICS     r4,r4,r3
        0x00000e4c:    6014        .`      STR      r4,[r2,#0]
        0x00000e4e:    6813        .h      LDR      r3,[r2,#0]
        0x00000e50:    430b        .C      ORRS     r3,r3,r1
        0x00000e52:    6013        .`      STR      r3,[r2,#0]
        0x00000e54:    04cb        ..      LSLS     r3,r1,#19
        0x00000e56:    6814        .h      LDR      r4,[r2,#0]
        0x00000e58:    439c        .C      BICS     r4,r4,r3
        0x00000e5a:    6014        .`      STR      r4,[r2,#0]
        0x00000e5c:    6813        .h      LDR      r3,[r2,#0]
        0x00000e5e:    2440        @$      MOVS     r4,#0x40
        0x00000e60:    43a3        .C      BICS     r3,r3,r4
        0x00000e62:    6013        .`      STR      r3,[r2,#0]
        0x00000e64:    6953        Si      LDR      r3,[r2,#0x14]
        0x00000e66:    4c9c        .L      LDR      r4,[pc,#624] ; [0x10d8] = 0xfffff000
        0x00000e68:    401c        .@      ANDS     r4,r4,r3
        0x00000e6a:    4304        .C      ORRS     r4,r4,r0
        0x00000e6c:    6154        Ta      STR      r4,[r2,#0x14]
        0x00000e6e:    0408        ..      LSLS     r0,r1,#16
        0x00000e70:    4a98        .J      LDR      r2,[pc,#608] ; [0x10d4] = 0x40040008
        0x00000e72:    6510        .e      STR      r0,[r2,#0x50]
        0x00000e74:    0448        H.      LSLS     r0,r1,#17
        0x00000e76:    6510        .e      STR      r0,[r2,#0x50]
        0x00000e78:    06c8        ..      LSLS     r0,r1,#27
        0x00000e7a:    6811        .h      LDR      r1,[r2,#0]
        0x00000e7c:    4301        .C      ORRS     r1,r1,r0
        0x00000e7e:    6011        .`      STR      r1,[r2,#0]
        0x00000e80:    6810        .h      LDR      r0,[r2,#0]
        0x00000e82:    2115        .!      MOVS     r1,#0x15
        0x00000e84:    4301        .C      ORRS     r1,r1,r0
        0x00000e86:    6011        .`      STR      r1,[r2,#0]
        0x00000e88:    bd10        ..      POP      {r4,pc}
        0x00000e8a:    46c0        .F      MOV      r8,r8
    $d
    __arm_cp.24_2
        0x00000e8c:    400d0000    ...@    DCD    1074593792
    $t
    Initialize_ADC
        0x00000e90:    2001        .       MOVS     r0,#1
        0x00000e92:    0701        ..      LSLS     r1,r0,#28
        0x00000e94:    4a8d        .J      LDR      r2,[pc,#564] ; [0x10cc] = 0x50000208
        0x00000e96:    6813        .h      LDR      r3,[r2,#0]
        0x00000e98:    430b        .C      ORRS     r3,r3,r1
        0x00000e9a:    6013        .`      STR      r3,[r2,#0]
        0x00000e9c:    4a8c        .J      LDR      r2,[pc,#560] ; [0x10d0] = 0x5000000c
        0x00000e9e:    6813        .h      LDR      r3,[r2,#0]
        0x00000ea0:    430b        .C      ORRS     r3,r3,r1
        0x00000ea2:    6013        .`      STR      r3,[r2,#0]
        0x00000ea4:    6813        .h      LDR      r3,[r2,#0]
        0x00000ea6:    438b        .C      BICS     r3,r3,r1
        0x00000ea8:    6013        .`      STR      r3,[r2,#0]
        0x00000eaa:    4907        .I      LDR      r1,[pc,#28] ; [0xec8] = 0x400e0020
        0x00000eac:    680a        .h      LDR      r2,[r1,#0]
        0x00000eae:    4302        .C      ORRS     r2,r2,r0
        0x00000eb0:    600a        .`      STR      r2,[r1,#0]
        0x00000eb2:    68c8        .h      LDR      r0,[r1,#0xc]
        0x00000eb4:    2205        ."      MOVS     r2,#5
        0x00000eb6:    4302        .C      ORRS     r2,r2,r0
        0x00000eb8:    200a        .       MOVS     r0,#0xa
        0x00000eba:    4382        .C      BICS     r2,r2,r0
        0x00000ebc:    60ca        .`      STR      r2,[r1,#0xc]
        0x00000ebe:    6808        .h      LDR      r0,[r1,#0]
        0x00000ec0:    2202        ."      MOVS     r2,#2
        0x00000ec2:    4302        .C      ORRS     r2,r2,r0
        0x00000ec4:    600a        .`      STR      r2,[r1,#0]
        0x00000ec6:    4770        pG      BX       lr
    $d
    __arm_cp.9_2
        0x00000ec8:    400e0020     ..@    DCD    1074659360
    $t
    Initialize_ECAP
        0x00000ecc:    b5b0        ..      PUSH     {r4,r5,r7,lr}
        0x00000ece:    2001        .       MOVS     r0,#1
        0x00000ed0:    0201        ..      LSLS     r1,r0,#8
        0x00000ed2:    4a7e        ~J      LDR      r2,[pc,#504] ; [0x10cc] = 0x50000208
        0x00000ed4:    6813        .h      LDR      r3,[r2,#0]
        0x00000ed6:    430b        .C      ORRS     r3,r3,r1
        0x00000ed8:    6013        .`      STR      r3,[r2,#0]
        0x00000eda:    4a7d        }J      LDR      r2,[pc,#500] ; [0x10d0] = 0x5000000c
        0x00000edc:    6813        .h      LDR      r3,[r2,#0]
        0x00000ede:    430b        .C      ORRS     r3,r3,r1
        0x00000ee0:    6013        .`      STR      r3,[r2,#0]
        0x00000ee2:    6813        .h      LDR      r3,[r2,#0]
        0x00000ee4:    438b        .C      BICS     r3,r3,r1
        0x00000ee6:    6013        .`      STR      r3,[r2,#0]
        0x00000ee8:    0743        C.      LSLS     r3,r0,#29
        0x00000eea:    4935        5I      LDR      r1,[pc,#212] ; [0xfc0] = 0x401b0014
        0x00000eec:    680c        .h      LDR      r4,[r1,#0]
        0x00000eee:    431c        .C      ORRS     r4,r4,r3
        0x00000ef0:    600c        .`      STR      r4,[r1,#0]
        0x00000ef2:    680b        .h      LDR      r3,[r1,#0]
        0x00000ef4:    2410        .$      MOVS     r4,#0x10
        0x00000ef6:    431c        .C      ORRS     r4,r4,r3
        0x00000ef8:    600c        .`      STR      r4,[r1,#0]
        0x00000efa:    680b        .h      LDR      r3,[r1,#0]
        0x00000efc:    2420         $      MOVS     r4,#0x20
        0x00000efe:    431c        .C      ORRS     r4,r4,r3
        0x00000f00:    600c        .`      STR      r4,[r1,#0]
        0x00000f02:    680b        .h      LDR      r3,[r1,#0]
        0x00000f04:    2440        @$      MOVS     r4,#0x40
        0x00000f06:    431c        .C      ORRS     r4,r4,r3
        0x00000f08:    600c        .`      STR      r4,[r1,#0]
        0x00000f0a:    680b        .h      LDR      r3,[r1,#0]
        0x00000f0c:    2402        .$      MOVS     r4,#2
        0x00000f0e:    431c        .C      ORRS     r4,r4,r3
        0x00000f10:    230d        .#      MOVS     r3,#0xd
        0x00000f12:    439c        .C      BICS     r4,r4,r3
        0x00000f14:    600c        .`      STR      r4,[r1,#0]
        0x00000f16:    233f        ?#      MOVS     r3,#0x3f
        0x00000f18:    021b        ..      LSLS     r3,r3,#8
        0x00000f1a:    680c        .h      LDR      r4,[r1,#0]
        0x00000f1c:    439c        .C      BICS     r4,r4,r3
        0x00000f1e:    600c        .`      STR      r4,[r1,#0]
        0x00000f20:    684b        Kh      LDR      r3,[r1,#4]
        0x00000f22:    242a        *$      MOVS     r4,#0x2a
        0x00000f24:    431c        .C      ORRS     r4,r4,r3
        0x00000f26:    4384        .C      BICS     r4,r4,r0
        0x00000f28:    604c        L`      STR      r4,[r1,#4]
        0x00000f2a:    2303        .#      MOVS     r3,#3
        0x00000f2c:    041c        ..      LSLS     r4,r3,#16
        0x00000f2e:    684d        Mh      LDR      r5,[r1,#4]
        0x00000f30:    43a5        .C      BICS     r5,r5,r4
        0x00000f32:    604d        M`      STR      r5,[r1,#4]
        0x00000f34:    2407        .$      MOVS     r4,#7
        0x00000f36:    0324        $.      LSLS     r4,r4,#12
        0x00000f38:    684d        Mh      LDR      r5,[r1,#4]
        0x00000f3a:    43a5        .C      BICS     r5,r5,r4
        0x00000f3c:    031c        ..      LSLS     r4,r3,#12
        0x00000f3e:    192c        ,.      ADDS     r4,r5,r4
        0x00000f40:    604c        L`      STR      r4,[r1,#4]
        0x00000f42:    0704        ..      LSLS     r4,r0,#28
        0x00000f44:    680d        .h      LDR      r5,[r1,#0]
        0x00000f46:    4325        %C      ORRS     r5,r5,r4
        0x00000f48:    600d        .`      STR      r5,[r1,#0]
        0x00000f4a:    06c4        ..      LSLS     r4,r0,#27
        0x00000f4c:    680d        .h      LDR      r5,[r1,#0]
        0x00000f4e:    43a5        .C      BICS     r5,r5,r4
        0x00000f50:    600d        .`      STR      r5,[r1,#0]
        0x00000f52:    0684        ..      LSLS     r4,r0,#26
        0x00000f54:    680d        .h      LDR      r5,[r1,#0]
        0x00000f56:    4325        %C      ORRS     r5,r5,r4
        0x00000f58:    600d        .`      STR      r5,[r1,#0]
        0x00000f5a:    0644        D.      LSLS     r4,r0,#25
        0x00000f5c:    680d        .h      LDR      r5,[r1,#0]
        0x00000f5e:    4325        %C      ORRS     r5,r5,r4
        0x00000f60:    600d        .`      STR      r5,[r1,#0]
        0x00000f62:    1f0c        ..      SUBS     r4,r1,#4
        0x00000f64:    04c5        ..      LSLS     r5,r0,#19
        0x00000f66:    6025        %`      STR      r5,[r4,#0]
        0x00000f68:    460c        .F      MOV      r4,r1
        0x00000f6a:    3c14        .<      SUBS     r4,r4,#0x14
        0x00000f6c:    2500        .%      MOVS     r5,#0
        0x00000f6e:    6025        %`      STR      r5,[r4,#0]
        0x00000f70:    460c        .F      MOV      r4,r1
        0x00000f72:    3c10        .<      SUBS     r4,r4,#0x10
        0x00000f74:    6025        %`      STR      r5,[r4,#0]
        0x00000f76:    460c        .F      MOV      r4,r1
        0x00000f78:    3c0c        .<      SUBS     r4,r4,#0xc
        0x00000f7a:    6025        %`      STR      r5,[r4,#0]
        0x00000f7c:    460c        .F      MOV      r4,r1
        0x00000f7e:    3c08        .<      SUBS     r4,r4,#8
        0x00000f80:    6025        %`      STR      r5,[r4,#0]
        0x00000f82:    6b94        .k      LDR      r4,[r2,#0x38]
        0x00000f84:    4d54        TM      LDR      r5,[pc,#336] ; [0x10d8] = 0xfffff000
        0x00000f86:    4025        %@      ANDS     r5,r5,r4
        0x00000f88:    4c0e        .L      LDR      r4,[pc,#56] ; [0xfc4] = 0xccc
        0x00000f8a:    192c        ,.      ADDS     r4,r5,r4
        0x00000f8c:    6394        .c      STR      r4,[r2,#0x38]
        0x00000f8e:    43da        .C      MVNS     r2,r3
        0x00000f90:    4bdd        .K      LDR      r3,[pc,#884] ; [0x1308] = 0x50004140
        0x00000f92:    681c        .h      LDR      r4,[r3,#0]
        0x00000f94:    4014        .@      ANDS     r4,r4,r2
        0x00000f96:    601c        .`      STR      r4,[r3,#0]
        0x00000f98:    681a        .h      LDR      r2,[r3,#0]
        0x00000f9a:    240c        .$      MOVS     r4,#0xc
        0x00000f9c:    43a2        .C      BICS     r2,r2,r4
        0x00000f9e:    601a        .`      STR      r2,[r3,#0]
        0x00000fa0:    681a        .h      LDR      r2,[r3,#0]
        0x00000fa2:    2430        0$      MOVS     r4,#0x30
        0x00000fa4:    43a2        .C      BICS     r2,r2,r4
        0x00000fa6:    601a        .`      STR      r2,[r3,#0]
        0x00000fa8:    688a        .h      LDR      r2,[r1,#8]
        0x00000faa:    608a        .`      STR      r2,[r1,#8]
        0x00000fac:    2237        7"      MOVS     r2,#0x37
        0x00000fae:    0412        ..      LSLS     r2,r2,#16
        0x00000fb0:    680b        .h      LDR      r3,[r1,#0]
        0x00000fb2:    4313        .C      ORRS     r3,r3,r2
        0x00000fb4:    600b        .`      STR      r3,[r1,#0]
        0x00000fb6:    0600        ..      LSLS     r0,r0,#24
        0x00000fb8:    680a        .h      LDR      r2,[r1,#0]
        0x00000fba:    4302        .C      ORRS     r2,r2,r0
        0x00000fbc:    600a        .`      STR      r2,[r1,#0]
        0x00000fbe:    bdb0        ..      POP      {r4,r5,r7,pc}
    $d
    __arm_cp.8_2
        0x00000fc0:    401b0014    ...@    DCD    1075511316
    __arm_cp.8_4
        0x00000fc4:    00000ccc    ....    DCD    3276
    $t
    Initialize_EPWM
        0x00000fc8:    b570        p.      PUSH     {r4-r6,lr}
        0x00000fca:    2101        .!      MOVS     r1,#1
        0x00000fcc:    050a        ..      LSLS     r2,r1,#20
        0x00000fce:    483f        ?H      LDR      r0,[pc,#252] ; [0x10cc] = 0x50000208
        0x00000fd0:    6803        .h      LDR      r3,[r0,#0]
        0x00000fd2:    4313        .C      ORRS     r3,r3,r2
        0x00000fd4:    6003        .`      STR      r3,[r0,#0]
        0x00000fd6:    483e        >H      LDR      r0,[pc,#248] ; [0x10d0] = 0x5000000c
        0x00000fd8:    6803        .h      LDR      r3,[r0,#0]
        0x00000fda:    4313        .C      ORRS     r3,r3,r2
        0x00000fdc:    6003        .`      STR      r3,[r0,#0]
        0x00000fde:    6803        .h      LDR      r3,[r0,#0]
        0x00000fe0:    4393        .C      BICS     r3,r3,r2
        0x00000fe2:    6003        .`      STR      r3,[r0,#0]
        0x00000fe4:    2203        ."      MOVS     r2,#3
        0x00000fe6:    0713        ..      LSLS     r3,r2,#28
        0x00000fe8:    4a3a        :J      LDR      r2,[pc,#232] ; [0x10d4] = 0x40040008
        0x00000fea:    6814        .h      LDR      r4,[r2,#0]
        0x00000fec:    439c        .C      BICS     r4,r4,r3
        0x00000fee:    070b        ..      LSLS     r3,r1,#28
        0x00000ff0:    18e3        ..      ADDS     r3,r4,r3
        0x00000ff2:    6013        .`      STR      r3,[r2,#0]
        0x00000ff4:    07cb        ..      LSLS     r3,r1,#31
        0x00000ff6:    6814        .h      LDR      r4,[r2,#0]
        0x00000ff8:    431c        .C      ORRS     r4,r4,r3
        0x00000ffa:    6014        .`      STR      r4,[r2,#0]
        0x00000ffc:    020b        ..      LSLS     r3,r1,#8
        0x00000ffe:    6814        .h      LDR      r4,[r2,#0]
        0x00001000:    431c        .C      ORRS     r4,r4,r3
        0x00001002:    6014        .`      STR      r4,[r2,#0]
        0x00001004:    1f13        ..      SUBS     r3,r2,#4
        0x00001006:    681d        .h      LDR      r5,[r3,#0]
        0x00001008:    240f        .$      MOVS     r4,#0xf
        0x0000100a:    43a5        .C      BICS     r5,r5,r4
        0x0000100c:    601d        .`      STR      r5,[r3,#0]
        0x0000100e:    237d        }#      MOVS     r3,#0x7d
        0x00001010:    011b        ..      LSLS     r3,r3,#4
        0x00001012:    6053        S`      STR      r3,[r2,#4]
        0x00001014:    2300        .#      MOVS     r3,#0
        0x00001016:    61d3        .a      STR      r3,[r2,#0x1c]
        0x00001018:    6253        Sb      STR      r3,[r2,#0x24]
        0x0000101a:    62d3        .b      STR      r3,[r2,#0x2c]
        0x0000101c:    6dd3        .m      LDR      r3,[r2,#0x5c]
        0x0000101e:    253c        <%      MOVS     r5,#0x3c
        0x00001020:    431d        .C      ORRS     r5,r5,r3
        0x00001022:    23c3        .#      MOVS     r3,#0xc3
        0x00001024:    439d        .C      BICS     r5,r5,r3
        0x00001026:    65d5        .e      STR      r5,[r2,#0x5c]
        0x00001028:    060b        ..      LSLS     r3,r1,#24
        0x0000102a:    6815        .h      LDR      r5,[r2,#0]
        0x0000102c:    431d        .C      ORRS     r5,r5,r3
        0x0000102e:    6015        .`      STR      r5,[r2,#0]
        0x00001030:    23ff        .#      MOVS     r3,#0xff
        0x00001032:    021d        ..      LSLS     r5,r3,#8
        0x00001034:    6dd6        .m      LDR      r6,[r2,#0x5c]
        0x00001036:    43ae        .C      BICS     r6,r6,r5
        0x00001038:    02a5        ..      LSLS     r5,r4,#10
        0x0000103a:    1975        u.      ADDS     r5,r6,r5
        0x0000103c:    65d5        .e      STR      r5,[r2,#0x5c]
        0x0000103e:    064d        M.      LSLS     r5,r1,#25
        0x00001040:    6816        .h      LDR      r6,[r2,#0]
        0x00001042:    432e        .C      ORRS     r6,r6,r5
        0x00001044:    6016        .`      STR      r6,[r2,#0]
        0x00001046:    041d        ..      LSLS     r5,r3,#16
        0x00001048:    6dd6        .m      LDR      r6,[r2,#0x5c]
        0x0000104a:    43ae        .C      BICS     r6,r6,r5
        0x0000104c:    04a4        ..      LSLS     r4,r4,#18
        0x0000104e:    1934        4.      ADDS     r4,r6,r4
        0x00001050:    65d4        .e      STR      r4,[r2,#0x5c]
        0x00001052:    068c        ..      LSLS     r4,r1,#26
        0x00001054:    6815        .h      LDR      r5,[r2,#0]
        0x00001056:    4325        %C      ORRS     r5,r5,r4
        0x00001058:    6015        .`      STR      r5,[r2,#0]
        0x0000105a:    2407        .$      MOVS     r4,#7
        0x0000105c:    0524        $.      LSLS     r4,r4,#20
        0x0000105e:    6f15        .o      LDR      r5,[r2,#0x70]
        0x00001060:    4325        %C      ORRS     r5,r5,r4
        0x00001062:    6715        .g      STR      r5,[r2,#0x70]
        0x00001064:    6f14        .o      LDR      r4,[r2,#0x70]
        0x00001066:    25c0        .%      MOVS     r5,#0xc0
        0x00001068:    4325        %C      ORRS     r5,r5,r4
        0x0000106a:    263f        ?&      MOVS     r6,#0x3f
        0x0000106c:    43f4        .C      MVNS     r4,r6
        0x0000106e:    4025        %@      ANDS     r5,r5,r4
        0x00001070:    6715        .g      STR      r5,[r2,#0x70]
        0x00001072:    0235        5.      LSLS     r5,r6,#8
        0x00001074:    6f16        .o      LDR      r6,[r2,#0x70]
        0x00001076:    432e        .C      ORRS     r6,r6,r5
        0x00001078:    6716        .g      STR      r6,[r2,#0x70]
        0x0000107a:    4615        .F      MOV      r5,r2
        0x0000107c:    3d08        .=      SUBS     r5,r5,#8
        0x0000107e:    682e        .h      LDR      r6,[r5,#0]
        0x00001080:    4026        &@      ANDS     r6,r6,r4
        0x00001082:    602e        .`      STR      r6,[r5,#0]
        0x00001084:    6d95        .m      LDR      r5,[r2,#0x58]
        0x00001086:    2605        .&      MOVS     r6,#5
        0x00001088:    432e        .C      ORRS     r6,r6,r5
        0x0000108a:    6596        .e      STR      r6,[r2,#0x58]
        0x0000108c:    6d15        .m      LDR      r5,[r2,#0x50]
        0x0000108e:    6515        .e      STR      r5,[r2,#0x50]
        0x00001090:    040d        ..      LSLS     r5,r1,#16
        0x00001092:    6cd6        .l      LDR      r6,[r2,#0x4c]
        0x00001094:    432e        .C      ORRS     r6,r6,r5
        0x00001096:    64d6        .d      STR      r6,[r2,#0x4c]
        0x00001098:    06c9        ..      LSLS     r1,r1,#27
        0x0000109a:    6815        .h      LDR      r5,[r2,#0]
        0x0000109c:    430d        .C      ORRS     r5,r5,r1
        0x0000109e:    6015        .`      STR      r5,[r2,#0]
        0x000010a0:    6811        .h      LDR      r1,[r2,#0]
        0x000010a2:    2515        .%      MOVS     r5,#0x15
        0x000010a4:    430d        .C      ORRS     r5,r5,r1
        0x000010a6:    6015        .`      STR      r5,[r2,#0]
        0x000010a8:    4996        .I      LDR      r1,[pc,#600] ; [0x1304] = 0x50004000
        0x000010aa:    688a        .h      LDR      r2,[r1,#8]
        0x000010ac:    4022        "@      ANDS     r2,r2,r4
        0x000010ae:    608a        .`      STR      r2,[r1,#8]
        0x000010b0:    680a        .h      LDR      r2,[r1,#0]
        0x000010b2:    4c09        .L      LDR      r4,[pc,#36] ; [0x10d8] = 0xfffff000
        0x000010b4:    4014        .@      ANDS     r4,r4,r2
        0x000010b6:    4a09        .J      LDR      r2,[pc,#36] ; [0x10dc] = 0x555
        0x000010b8:    18a2        ..      ADDS     r2,r4,r2
        0x000010ba:    600a        .`      STR      r2,[r1,#0]
        0x000010bc:    0619        ..      LSLS     r1,r3,#24
        0x000010be:    6a42        Bj      LDR      r2,[r0,#0x24]
        0x000010c0:    400a        .@      ANDS     r2,r2,r1
        0x000010c2:    4907        .I      LDR      r1,[pc,#28] ; [0x10e0] = 0x333333
        0x000010c4:    1851        Q.      ADDS     r1,r2,r1
        0x000010c6:    6241        Ab      STR      r1,[r0,#0x24]
        0x000010c8:    bd70        p.      POP      {r4-r6,pc}
        0x000010ca:    46c0        .F      MOV      r8,r8
    $d
    __arm_cp.1_0
        0x000010cc:    50000208    ...P    DCD    1342177800
    __arm_cp.1_1
        0x000010d0:    5000000c    ...P    DCD    1342177292
    __arm_cp.1_2
        0x000010d4:    40040008    ...@    DCD    1074003976
    __arm_cp.1_4
        0x000010d8:    fffff000    ....    DCD    4294963200
    __arm_cp.1_5
        0x000010dc:    00000555    U...    DCD    1365
    __arm_cp.1_6
        0x000010e0:    00333333    333.    DCD    3355443
    $t
    Initialize_FMC
        0x000010e4:    b5f0        ..      PUSH     {r4-r7,lr}
        0x000010e6:    b083        ..      SUB      sp,sp,#0xc
        0x000010e8:    4f53        SO      LDR      r7,[pc,#332] ; [0x1238] = 0x50000100
        0x000010ea:    2059        Y       MOVS     r0,#0x59
        0x000010ec:    6038        8`      STR      r0,[r7,#0]
        0x000010ee:    2016        .       MOVS     r0,#0x16
        0x000010f0:    6038        8`      STR      r0,[r7,#0]
        0x000010f2:    2088        .       MOVS     r0,#0x88
        0x000010f4:    6038        8`      STR      r0,[r7,#0]
        0x000010f6:    6838        8h      LDR      r0,[r7,#0]
        0x000010f8:    2800        .(      CMP      r0,#0
        0x000010fa:    d0f6        ..      BEQ      0x10ea ; Initialize_FMC + 6
        0x000010fc:    4823        #H      LDR      r0,[pc,#140] ; [0x118c] = 0x5000c000
        0x000010fe:    6801        .h      LDR      r1,[r0,#0]
        0x00001100:    2601        .&      MOVS     r6,#1
        0x00001102:    4331        1C      ORRS     r1,r1,r6
        0x00001104:    6001        .`      STR      r1,[r0,#0]
        0x00001106:    6801        .h      LDR      r1,[r0,#0]
        0x00001108:    2210        ."      MOVS     r2,#0x10
        0x0000110a:    430a        .C      ORRS     r2,r2,r1
        0x0000110c:    6002        .`      STR      r2,[r0,#0]
        0x0000110e:    2003        .       MOVS     r0,#3
        0x00001110:    0505        ..      LSLS     r5,r0,#20
        0x00001112:    4628        (F      MOV      r0,r5
        0x00001114:    f7fffcde    ....    BL       FMC_Read ; 0xad4
        0x00001118:    4c1d        .L      LDR      r4,[pc,#116] ; [0x1190] = 0x200001fc
        0x0000111a:    6020         `      STR      r0,[r4,#0]
        0x0000111c:    1d28        (.      ADDS     r0,r5,#4
        0x0000111e:    9001        ..      STR      r0,[sp,#4]
        0x00001120:    f7fffcd8    ....    BL       FMC_Read ; 0xad4
        0x00001124:    6060        ``      STR      r0,[r4,#4]
        0x00001126:    217f        .!      MOVS     r1,#0x7f
        0x00001128:    0249        I.      LSLS     r1,r1,#9
        0x0000112a:    43f2        .C      MVNS     r2,r6
        0x0000112c:    9202        ..      STR      r2,[sp,#8]
        0x0000112e:    460e        .F      MOV      r6,r1
        0x00001130:    6821        !h      LDR      r1,[r4,#0]
        0x00001132:    1c49        I.      ADDS     r1,r1,#1
        0x00001134:    d111        ..      BNE      0x115a ; Initialize_FMC + 118
        0x00001136:    1c40        @.      ADDS     r0,r0,#1
        0x00001138:    d10f        ..      BNE      0x115a ; Initialize_FMC + 118
        0x0000113a:    4628        (F      MOV      r0,r5
        0x0000113c:    f7fffcb2    ....    BL       FMC_Erase ; 0xaa4
        0x00001140:    4628        (F      MOV      r0,r5
        0x00001142:    9902        ..      LDR      r1,[sp,#8]
        0x00001144:    f7fffcd6    ....    BL       FMC_Write ; 0xaf4
        0x00001148:    9c01        ..      LDR      r4,[sp,#4]
        0x0000114a:    4620         F      MOV      r0,r4
        0x0000114c:    f7fffcaa    ....    BL       FMC_Erase ; 0xaa4
        0x00001150:    4620         F      MOV      r0,r4
        0x00001152:    4631        1F      MOV      r1,r6
        0x00001154:    f7fffcce    ....    BL       FMC_Write ; 0xaf4
        0x00001158:    4c0d        .L      LDR      r4,[pc,#52] ; [0x1190] = 0x200001fc
        0x0000115a:    6820         h      LDR      r0,[r4,#0]
        0x0000115c:    1c80        ..      ADDS     r0,r0,#2
        0x0000115e:    d011        ..      BEQ      0x1184 ; Initialize_FMC + 160
        0x00001160:    6860        `h      LDR      r0,[r4,#4]
        0x00001162:    42b0        .B      CMP      r0,r6
        0x00001164:    d00e        ..      BEQ      0x1184 ; Initialize_FMC + 160
        0x00001166:    4628        (F      MOV      r0,r5
        0x00001168:    f7fffc9c    ....    BL       FMC_Erase ; 0xaa4
        0x0000116c:    4628        (F      MOV      r0,r5
        0x0000116e:    9902        ..      LDR      r1,[sp,#8]
        0x00001170:    f7fffcc0    ....    BL       FMC_Write ; 0xaf4
        0x00001174:    9c01        ..      LDR      r4,[sp,#4]
        0x00001176:    4620         F      MOV      r0,r4
        0x00001178:    f7fffc94    ....    BL       FMC_Erase ; 0xaa4
        0x0000117c:    4620         F      MOV      r0,r4
        0x0000117e:    4631        1F      MOV      r1,r6
        0x00001180:    f7fffcb8    ....    BL       FMC_Write ; 0xaf4
        0x00001184:    2000        .       MOVS     r0,#0
        0x00001186:    6038        8`      STR      r0,[r7,#0]
        0x00001188:    b003        ..      ADD      sp,sp,#0xc
        0x0000118a:    bdf0        ..      POP      {r4-r7,pc}
    $d
    __arm_cp.18_1
        0x0000118c:    5000c000    ...P    DCD    1342226432
    __arm_cp.18_2
        0x00001190:    200001fc    ...     DCD    536871420
    $t
    Initialize_GDMA
        0x00001194:    b5b0        ..      PUSH     {r4,r5,r7,lr}
        0x00001196:    2001        .       MOVS     r0,#1
        0x00001198:    0201        ..      LSLS     r1,r0,#8
        0x0000119a:    4a61        aJ      LDR      r2,[pc,#388] ; [0x1320] = 0x50000204
        0x0000119c:    6813        .h      LDR      r3,[r2,#0]
        0x0000119e:    430b        .C      ORRS     r3,r3,r1
        0x000011a0:    6013        .`      STR      r3,[r2,#0]
        0x000011a2:    4a25        %J      LDR      r2,[pc,#148] ; [0x1238] = 0x50000100
        0x000011a4:    2359        Y#      MOVS     r3,#0x59
        0x000011a6:    6013        .`      STR      r3,[r2,#0]
        0x000011a8:    2316        .#      MOVS     r3,#0x16
        0x000011aa:    6013        .`      STR      r3,[r2,#0]
        0x000011ac:    2388        .#      MOVS     r3,#0x88
        0x000011ae:    6013        .`      STR      r3,[r2,#0]
        0x000011b0:    6813        .h      LDR      r3,[r2,#0]
        0x000011b2:    2b00        .+      CMP      r3,#0
        0x000011b4:    d0f6        ..      BEQ      0x11a4 ; Initialize_GDMA + 16
        0x000011b6:    4c21        !L      LDR      r4,[pc,#132] ; [0x123c] = 0x50000008
        0x000011b8:    6825        %h      LDR      r5,[r4,#0]
        0x000011ba:    2304        .#      MOVS     r3,#4
        0x000011bc:    431d        .C      ORRS     r5,r5,r3
        0x000011be:    6025        %`      STR      r5,[r4,#0]
        0x000011c0:    2400        .$      MOVS     r4,#0
        0x000011c2:    6014        .`      STR      r4,[r2,#0]
        0x000011c4:    4a1e        .J      LDR      r2,[pc,#120] ; [0x1240] = 0x50008000
        0x000011c6:    6814        .h      LDR      r4,[r2,#0]
        0x000011c8:    4d1e        .M      LDR      r5,[pc,#120] ; [0x1244] = 0xffffcdff
        0x000011ca:    402c        ,@      ANDS     r4,r4,r5
        0x000011cc:    6014        .`      STR      r4,[r2,#0]
        0x000011ce:    6a14        .j      LDR      r4,[r2,#0x20]
        0x000011d0:    402c        ,@      ANDS     r4,r4,r5
        0x000011d2:    6214        .b      STR      r4,[r2,#0x20]
        0x000011d4:    6814        .h      LDR      r4,[r2,#0]
        0x000011d6:    431c        .C      ORRS     r4,r4,r3
        0x000011d8:    2508        .%      MOVS     r5,#8
        0x000011da:    43ed        .C      MVNS     r5,r5
        0x000011dc:    402c        ,@      ANDS     r4,r4,r5
        0x000011de:    6014        .`      STR      r4,[r2,#0]
        0x000011e0:    6a14        .j      LDR      r4,[r2,#0x20]
        0x000011e2:    431c        .C      ORRS     r4,r4,r3
        0x000011e4:    402c        ,@      ANDS     r4,r4,r5
        0x000011e6:    6214        .b      STR      r4,[r2,#0x20]
        0x000011e8:    6a13        .j      LDR      r3,[r2,#0x20]
        0x000011ea:    2480        .$      MOVS     r4,#0x80
        0x000011ec:    431c        .C      ORRS     r4,r4,r3
        0x000011ee:    2370        p#      MOVS     r3,#0x70
        0x000011f0:    439c        .C      BICS     r4,r4,r3
        0x000011f2:    6014        .`      STR      r4,[r2,#0]
        0x000011f4:    6a13        .j      LDR      r3,[r2,#0x20]
        0x000011f6:    2440        @$      MOVS     r4,#0x40
        0x000011f8:    431c        .C      ORRS     r4,r4,r3
        0x000011fa:    23b0        .#      MOVS     r3,#0xb0
        0x000011fc:    439c        .C      BICS     r4,r4,r3
        0x000011fe:    6214        .b      STR      r4,[r2,#0x20]
        0x00001200:    2307        .#      MOVS     r3,#7
        0x00001202:    60d3        .`      STR      r3,[r2,#0xc]
        0x00001204:    4b10        .K      LDR      r3,[pc,#64] ; [0x1248] = 0x2000017c
        0x00001206:    6093        .`      STR      r3,[r2,#8]
        0x00001208:    4b10        .K      LDR      r3,[pc,#64] ; [0x124c] = 0x40270040
        0x0000120a:    461c        .F      MOV      r4,r3
        0x0000120c:    3c10        .<      SUBS     r4,r4,#0x10
        0x0000120e:    6294        .b      STR      r4,[r2,#0x28]
        0x00001210:    461c        .F      MOV      r4,r3
        0x00001212:    3c0c        .<      SUBS     r4,r4,#0xc
        0x00001214:    6054        T`      STR      r4,[r2,#4]
        0x00001216:    4c0e        .L      LDR      r4,[pc,#56] ; [0x1250] = 0x20000190
        0x00001218:    6254        Tb      STR      r4,[r2,#0x24]
        0x0000121a:    681c        .h      LDR      r4,[r3,#0]
        0x0000121c:    4304        .C      ORRS     r4,r4,r0
        0x0000121e:    601c        .`      STR      r4,[r3,#0]
        0x00001220:    681c        .h      LDR      r4,[r3,#0]
        0x00001222:    250e        .%      MOVS     r5,#0xe
        0x00001224:    4325        %C      ORRS     r5,r5,r4
        0x00001226:    601d        .`      STR      r5,[r3,#0]
        0x00001228:    6813        .h      LDR      r3,[r2,#0]
        0x0000122a:    430b        .C      ORRS     r3,r3,r1
        0x0000122c:    6013        .`      STR      r3,[r2,#0]
        0x0000122e:    6811        .h      LDR      r1,[r2,#0]
        0x00001230:    4301        .C      ORRS     r1,r1,r0
        0x00001232:    6011        .`      STR      r1,[r2,#0]
        0x00001234:    bdb0        ..      POP      {r4,r5,r7,pc}
        0x00001236:    46c0        .F      MOV      r8,r8
    $d
    __arm_cp.32_1
        0x00001238:    50000100    ...P    DCD    1342177536
    __arm_cp.32_2
        0x0000123c:    50000008    ...P    DCD    1342177288
    __arm_cp.32_3
        0x00001240:    50008000    ...P    DCD    1342210048
    __arm_cp.32_4
        0x00001244:    ffffcdff    ....    DCD    4294954495
    __arm_cp.32_5
        0x00001248:    2000017c    |..     DCD    536871292
    __arm_cp.32_6
        0x0000124c:    40270040    @.'@    DCD    1076297792
    __arm_cp.32_7
        0x00001250:    20000190    ...     DCD    536871312
    $t
    Initialize_GPIO
        0x00001254:    b5b0        ..      PUSH     {r4,r5,r7,lr}
        0x00001256:    2003        .       MOVS     r0,#3
        0x00001258:    0301        ..      LSLS     r1,r0,#12
        0x0000125a:    4a2a        *J      LDR      r2,[pc,#168] ; [0x1304] = 0x50004000
        0x0000125c:    6813        .h      LDR      r3,[r2,#0]
        0x0000125e:    438b        .C      BICS     r3,r3,r1
        0x00001260:    6013        .`      STR      r3,[r2,#0]
        0x00001262:    0201        ..      LSLS     r1,r0,#8
        0x00001264:    4a28        (J      LDR      r2,[pc,#160] ; [0x1308] = 0x50004140
        0x00001266:    6813        .h      LDR      r3,[r2,#0]
        0x00001268:    438b        .C      BICS     r3,r3,r1
        0x0000126a:    2101        .!      MOVS     r1,#1
        0x0000126c:    020c        ..      LSLS     r4,r1,#8
        0x0000126e:    191b        ..      ADDS     r3,r3,r4
        0x00001270:    6013        .`      STR      r3,[r2,#0]
        0x00001272:    6813        .h      LDR      r3,[r2,#0]
        0x00001274:    2440        @$      MOVS     r4,#0x40
        0x00001276:    431c        .C      ORRS     r4,r4,r3
        0x00001278:    2380        .#      MOVS     r3,#0x80
        0x0000127a:    439c        .C      BICS     r4,r4,r3
        0x0000127c:    6014        .`      STR      r4,[r2,#0]
        0x0000127e:    3a40        @:      SUBS     r2,r2,#0x40
        0x00001280:    6813        .h      LDR      r3,[r2,#0]
        0x00001282:    2404        .$      MOVS     r4,#4
        0x00001284:    431c        .C      ORRS     r4,r4,r3
        0x00001286:    2308        .#      MOVS     r3,#8
        0x00001288:    439c        .C      BICS     r4,r4,r3
        0x0000128a:    6014        .`      STR      r4,[r2,#0]
        0x0000128c:    230f        .#      MOVS     r3,#0xf
        0x0000128e:    021c        ..      LSLS     r4,r3,#8
        0x00001290:    4a1e        .J      LDR      r2,[pc,#120] ; [0x130c] = 0x50000038
        0x00001292:    6855        Uh      LDR      r5,[r2,#4]
        0x00001294:    43a5        .C      BICS     r5,r5,r4
        0x00001296:    024c        L.      LSLS     r4,r1,#9
        0x00001298:    192c        ,.      ADDS     r4,r5,r4
        0x0000129a:    6054        T`      STR      r4,[r2,#4]
        0x0000129c:    6814        .h      LDR      r4,[r2,#0]
        0x0000129e:    2502        .%      MOVS     r5,#2
        0x000012a0:    4325        %C      ORRS     r5,r5,r4
        0x000012a2:    240d        .$      MOVS     r4,#0xd
        0x000012a4:    43a5        .C      BICS     r5,r5,r4
        0x000012a6:    6015        .`      STR      r5,[r2,#0]
        0x000012a8:    6814        .h      LDR      r4,[r2,#0]
        0x000012aa:    2520         %      MOVS     r5,#0x20
        0x000012ac:    4325        %C      ORRS     r5,r5,r4
        0x000012ae:    24d0        .$      MOVS     r4,#0xd0
        0x000012b0:    43a5        .C      BICS     r5,r5,r4
        0x000012b2:    6015        .`      STR      r5,[r2,#0]
        0x000012b4:    071b        ..      LSLS     r3,r3,#28
        0x000012b6:    6814        .h      LDR      r4,[r2,#0]
        0x000012b8:    439c        .C      BICS     r4,r4,r3
        0x000012ba:    074b        K.      LSLS     r3,r1,#29
        0x000012bc:    18e3        ..      ADDS     r3,r4,r3
        0x000012be:    6013        .`      STR      r3,[r2,#0]
        0x000012c0:    4a13        .J      LDR      r2,[pc,#76] ; [0x1310] = 0x50004080
        0x000012c2:    6c13        .l      LDR      r3,[r2,#0x40]
        0x000012c4:    2430        0$      MOVS     r4,#0x30
        0x000012c6:    43a3        .C      BICS     r3,r3,r4
        0x000012c8:    6413        .d      STR      r3,[r2,#0x40]
        0x000012ca:    048b        ..      LSLS     r3,r1,#18
        0x000012cc:    6c54        Tl      LDR      r4,[r2,#0x44]
        0x000012ce:    431c        .C      ORRS     r4,r4,r3
        0x000012d0:    6454        Td      STR      r4,[r2,#0x44]
        0x000012d2:    6813        .h      LDR      r3,[r2,#0]
        0x000012d4:    4383        .C      BICS     r3,r3,r0
        0x000012d6:    6013        .`      STR      r3,[r2,#0]
        0x000012d8:    040b        ..      LSLS     r3,r1,#16
        0x000012da:    6854        Th      LDR      r4,[r2,#4]
        0x000012dc:    431c        .C      ORRS     r4,r4,r3
        0x000012de:    6054        T`      STR      r4,[r2,#4]
        0x000012e0:    6813        .h      LDR      r3,[r2,#0]
        0x000012e2:    240c        .$      MOVS     r4,#0xc
        0x000012e4:    43a3        .C      BICS     r3,r3,r4
        0x000012e6:    6013        .`      STR      r3,[r2,#0]
        0x000012e8:    044b        K.      LSLS     r3,r1,#17
        0x000012ea:    6854        Th      LDR      r4,[r2,#4]
        0x000012ec:    431c        .C      ORRS     r4,r4,r3
        0x000012ee:    6054        T`      STR      r4,[r2,#4]
        0x000012f0:    0380        ..      LSLS     r0,r0,#14
        0x000012f2:    6813        .h      LDR      r3,[r2,#0]
        0x000012f4:    4383        .C      BICS     r3,r3,r0
        0x000012f6:    6013        .`      STR      r3,[r2,#0]
        0x000012f8:    05c8        ..      LSLS     r0,r1,#23
        0x000012fa:    6851        Qh      LDR      r1,[r2,#4]
        0x000012fc:    4301        .C      ORRS     r1,r1,r0
        0x000012fe:    6051        Q`      STR      r1,[r2,#4]
        0x00001300:    bdb0        ..      POP      {r4,r5,r7,pc}
        0x00001302:    46c0        .F      MOV      r8,r8
    $d
    __arm_cp.27_0
        0x00001304:    50004000    .@.P    DCD    1342193664
    __arm_cp.27_1
        0x00001308:    50004140    @A.P    DCD    1342193984
    __arm_cp.27_2
        0x0000130c:    50000038    8..P    DCD    1342177336
    __arm_cp.27_3
        0x00001310:    50004080    .@.P    DCD    1342193792
    $t
    Initialize_HDIV
        0x00001314:    4802        .H      LDR      r0,[pc,#8] ; [0x1320] = 0x50000204
        0x00001316:    6801        .h      LDR      r1,[r0,#0]
        0x00001318:    2210        ."      MOVS     r2,#0x10
        0x0000131a:    430a        .C      ORRS     r2,r2,r1
        0x0000131c:    6002        .`      STR      r2,[r0,#0]
        0x0000131e:    4770        pG      BX       lr
    $d
    __arm_cp.28_0
        0x00001320:    50000204    ...P    DCD    1342177796
    $t
    Initialize_Motor_Parameters
        0x00001324:    b510        ..      PUSH     {r4,lr}
        0x00001326:    4c0b        .L      LDR      r4,[pc,#44] ; [0x1354] = 0x200000b4
        0x00001328:    4620         F      MOV      r0,r4
        0x0000132a:    3050        P0      ADDS     r0,r0,#0x50
        0x0000132c:    2123        #!      MOVS     r1,#0x23
        0x0000132e:    f7feff1e    ....    BL       __aeabi_memclr ; 0x16e
        0x00001332:    20ba        .       MOVS     r0,#0xba
        0x00001334:    2100        .!      MOVS     r1,#0
        0x00001336:    5221        !R      STRH     r1,[r4,r0]
        0x00001338:    20b6        .       MOVS     r0,#0xb6
        0x0000133a:    5421        !T      STRB     r1,[r4,r0]
        0x0000133c:    20b5        .       MOVS     r0,#0xb5
        0x0000133e:    5421        !T      STRB     r1,[r4,r0]
        0x00001340:    2096        .       MOVS     r0,#0x96
        0x00001342:    5421        !T      STRB     r1,[r4,r0]
        0x00001344:    2094        .       MOVS     r0,#0x94
        0x00001346:    5221        !R      STRH     r1,[r4,r0]
        0x00001348:    4803        .H      LDR      r0,[pc,#12] ; [0x1358] = 0x50004818
        0x0000134a:    6800        .h      LDR      r0,[r0,#0]
        0x0000134c:    2173        s!      MOVS     r1,#0x73
        0x0000134e:    5460        `T      STRB     r0,[r4,r1]
        0x00001350:    bd10        ..      POP      {r4,pc}
        0x00001352:    46c0        .F      MOV      r8,r8
    $d
    __arm_cp.1_0
        0x00001354:    200000b4    ...     DCD    536871092
    __arm_cp.1_1
        0x00001358:    50004818    .H.P    DCD    1342195736
    $t
    Initialize_Motor_System
        0x0000135c:    b5f0        ..      PUSH     {r4-r7,lr}
        0x0000135e:    b081        ..      SUB      sp,sp,#4
        0x00001360:    f000f9d4    ....    BL       Initialize_Variabls ; 0x170c
        0x00001364:    f000fa4e    ..N.    BL       Iu_Iv_Zero_Current_Calibration ; 0x1804
        0x00001368:    4a49        IJ      LDR      r2,[pc,#292] ; [0x1490] = 0x400e0020
        0x0000136a:    6810        .h      LDR      r0,[r2,#0]
        0x0000136c:    21c0        .!      MOVS     r1,#0xc0
        0x0000136e:    4388        .C      BICS     r0,r0,r1
        0x00001370:    6010        .`      STR      r0,[r2,#0]
        0x00001372:    2001        .       MOVS     r0,#1
        0x00001374:    07c1        ..      LSLS     r1,r0,#31
        0x00001376:    4613        .F      MOV      r3,r2
        0x00001378:    3b10        .;      SUBS     r3,r3,#0x10
        0x0000137a:    681c        .h      LDR      r4,[r3,#0]
        0x0000137c:    b2a4        ..      UXTH     r4,r4
        0x0000137e:    9100        ..      STR      r1,[sp,#0]
        0x00001380:    1864        d.      ADDS     r4,r4,r1
        0x00001382:    601c        .`      STR      r4,[r3,#0]
        0x00001384:    0284        ..      LSLS     r4,r0,#10
        0x00001386:    6815        .h      LDR      r5,[r2,#0]
        0x00001388:    43a5        .C      BICS     r5,r5,r4
        0x0000138a:    6015        .`      STR      r5,[r2,#0]
        0x0000138c:    0205        ..      LSLS     r5,r0,#8
        0x0000138e:    6115        .a      STR      r5,[r2,#0x10]
        0x00001390:    02c4        ..      LSLS     r4,r0,#11
        0x00001392:    6816        .h      LDR      r6,[r2,#0]
        0x00001394:    4326        &C      ORRS     r6,r6,r4
        0x00001396:    6016        .`      STR      r6,[r2,#0]
        0x00001398:    6916        .i      LDR      r6,[r2,#0x10]
        0x0000139a:    422e        .B      TST      r6,r5
        0x0000139c:    d0fc        ..      BEQ      0x1398 ; Initialize_Motor_System + 60
        0x0000139e:    6916        .i      LDR      r6,[r2,#0x10]
        0x000013a0:    432e        .C      ORRS     r6,r6,r5
        0x000013a2:    6116        .a      STR      r6,[r2,#0x10]
        0x000013a4:    4d3b        ;M      LDR      r5,[pc,#236] ; [0x1494] = 0x400e00fc
        0x000013a6:    682d        -h      LDR      r5,[r5,#0]
        0x000013a8:    b2ad        ..      UXTH     r5,r5
        0x000013aa:    0aee        ..      LSRS     r6,r5,#11
        0x000013ac:    d104        ..      BNE      0x13b8 ; Initialize_Motor_System + 92
        0x000013ae:    4e3a        :N      LDR      r6,[pc,#232] ; [0x1498] = 0x2000022e
        0x000013b0:    2700        .'      MOVS     r7,#0
        0x000013b2:    7037        7p      STRB     r7,[r6,#0]
        0x000013b4:    4e39        9N      LDR      r6,[pc,#228] ; [0x149c] = 0x2000022f
        0x000013b6:    7030        0p      STRB     r0,[r6,#0]
        0x000013b8:    42a5        .B      CMP      r5,r4
        0x000013ba:    d904        ..      BLS      0x13c6 ; Initialize_Motor_System + 106
        0x000013bc:    4d36        6M      LDR      r5,[pc,#216] ; [0x1498] = 0x2000022e
        0x000013be:    7028        (p      STRB     r0,[r5,#0]
        0x000013c0:    4d36        6M      LDR      r5,[pc,#216] ; [0x149c] = 0x2000022f
        0x000013c2:    2600        .&      MOVS     r6,#0
        0x000013c4:    702e        .p      STRB     r6,[r5,#0]
        0x000013c6:    4625        %F      MOV      r5,r4
        0x000013c8:    3508        .5      ADDS     r5,r5,#8
        0x000013ca:    6916        .i      LDR      r6,[r2,#0x10]
        0x000013cc:    422e        .B      TST      r6,r5
        0x000013ce:    d1fa        ..      BNE      0x13c6 ; Initialize_Motor_System + 106
        0x000013d0:    6814        .h      LDR      r4,[r2,#0]
        0x000013d2:    2580        .%      MOVS     r5,#0x80
        0x000013d4:    4325        %C      ORRS     r5,r5,r4
        0x000013d6:    2440        @$      MOVS     r4,#0x40
        0x000013d8:    43a5        .C      BICS     r5,r5,r4
        0x000013da:    6015        .`      STR      r5,[r2,#0]
        0x000013dc:    681d        .h      LDR      r5,[r3,#0]
        0x000013de:    4d30        0M      LDR      r5,[pc,#192] ; [0x14a0] = 0x20008
        0x000013e0:    601d        .`      STR      r5,[r3,#0]
        0x000013e2:    6813        .h      LDR      r3,[r2,#0]
        0x000013e4:    4d2f        /M      LDR      r5,[pc,#188] ; [0x14a4] = 0x404
        0x000013e6:    431d        .C      ORRS     r5,r5,r3
        0x000013e8:    6015        .`      STR      r5,[r2,#0]
        0x000013ea:    6853        Sh      LDR      r3,[r2,#4]
        0x000013ec:    2531        1%      MOVS     r5,#0x31
        0x000013ee:    431d        .C      ORRS     r5,r5,r3
        0x000013f0:    23ce        .#      MOVS     r3,#0xce
        0x000013f2:    439d        .C      BICS     r5,r5,r3
        0x000013f4:    6055        U`      STR      r5,[r2,#4]
        0x000013f6:    4b2c        ,K      LDR      r3,[pc,#176] ; [0x14a8] = 0xe000e404
        0x000013f8:    681e        .h      LDR      r6,[r3,#0]
        0x000013fa:    4d2c        ,M      LDR      r5,[pc,#176] ; [0x14ac] = 0xff00ffff
        0x000013fc:    402e        .@      ANDS     r6,r6,r5
        0x000013fe:    0582        ..      LSLS     r2,r0,#22
        0x00001400:    18b6        ..      ADDS     r6,r6,r2
        0x00001402:    601e        .`      STR      r6,[r3,#0]
        0x00001404:    26ff        .&      MOVS     r6,#0xff
        0x00001406:    0236        6.      LSLS     r6,r6,#8
        0x00001408:    699f        .i      LDR      r7,[r3,#0x18]
        0x0000140a:    43b7        .C      BICS     r7,r7,r6
        0x0000140c:    0386        ..      LSLS     r6,r0,#14
        0x0000140e:    19be        ..      ADDS     r6,r7,r6
        0x00001410:    619e        .a      STR      r6,[r3,#0x18]
        0x00001412:    68de        .h      LDR      r6,[r3,#0xc]
        0x00001414:    4f26        &O      LDR      r7,[pc,#152] ; [0x14b0] = 0xffffff
        0x00001416:    403e        >@      ANDS     r6,r6,r7
        0x00001418:    0781        ..      LSLS     r1,r0,#30
        0x0000141a:    1871        q.      ADDS     r1,r6,r1
        0x0000141c:    60d9        .`      STR      r1,[r3,#0xc]
        0x0000141e:    6899        .h      LDR      r1,[r3,#8]
        0x00001420:    4039        9@      ANDS     r1,r1,r7
        0x00001422:    9e00        ..      LDR      r6,[sp,#0]
        0x00001424:    4331        1C      ORRS     r1,r1,r6
        0x00001426:    6099        .`      STR      r1,[r3,#8]
        0x00001428:    6919        .i      LDR      r1,[r3,#0x10]
        0x0000142a:    4029        )@      ANDS     r1,r1,r5
        0x0000142c:    2503        .%      MOVS     r5,#3
        0x0000142e:    05ad        ..      LSLS     r5,r5,#22
        0x00001430:    1949        I.      ADDS     r1,r1,r5
        0x00001432:    6119        .a      STR      r1,[r3,#0x10]
        0x00001434:    2100        .!      MOVS     r1,#0
        0x00001436:    43cb        .C      MVNS     r3,r1
        0x00001438:    4d1e        .M      LDR      r5,[pc,#120] ; [0x14b4] = 0xe000e280
        0x0000143a:    602b        +`      STR      r3,[r5,#0]
        0x0000143c:    0745        E.      LSLS     r5,r0,#29
        0x0000143e:    4b1e        .K      LDR      r3,[pc,#120] ; [0x14b8] = 0xe000e100
        0x00001440:    601d        .`      STR      r5,[r3,#0]
        0x00001442:    601c        .`      STR      r4,[r3,#0]
        0x00001444:    03c4        ..      LSLS     r4,r0,#15
        0x00001446:    601c        .`      STR      r4,[r3,#0]
        0x00001448:    601a        .`      STR      r2,[r3,#0]
        0x0000144a:    4a14        .J      LDR      r2,[pc,#80] ; [0x149c] = 0x2000022f
        0x0000144c:    7812        .x      LDRB     r2,[r2,#0]
        0x0000144e:    2a00        .*      CMP      r2,#0
        0x00001450:    d105        ..      BNE      0x145e ; Initialize_Motor_System + 258
        0x00001452:    4a11        .J      LDR      r2,[pc,#68] ; [0x1498] = 0x2000022e
        0x00001454:    7812        .x      LDRB     r2,[r2,#0]
        0x00001456:    2a01        .*      CMP      r2,#1
        0x00001458:    d101        ..      BNE      0x145e ; Initialize_Motor_System + 258
        0x0000145a:    04c0        ..      LSLS     r0,r0,#19
        0x0000145c:    6018        .`      STR      r0,[r3,#0]
        0x0000145e:    4817        .H      LDR      r0,[pc,#92] ; [0x14bc] = 0x2000022b
        0x00001460:    7001        .p      STRB     r1,[r0,#0]
        0x00001462:    4817        .H      LDR      r0,[pc,#92] ; [0x14c0] = 0x2000022c
        0x00001464:    7001        .p      STRB     r1,[r0,#0]
        0x00001466:    4817        .H      LDR      r0,[pc,#92] ; [0x14c4] = 0x2000022a
        0x00001468:    7001        .p      STRB     r1,[r0,#0]
        0x0000146a:    4817        .H      LDR      r0,[pc,#92] ; [0x14c8] = 0x2000022d
        0x0000146c:    7001        .p      STRB     r1,[r0,#0]
        0x0000146e:    4817        .H      LDR      r0,[pc,#92] ; [0x14cc] = 0x20000228
        0x00001470:    8001        ..      STRH     r1,[r0,#0]
        0x00001472:    4817        .H      LDR      r0,[pc,#92] ; [0x14d0] = 0x20000224
        0x00001474:    8001        ..      STRH     r1,[r0,#0]
        0x00001476:    4817        .H      LDR      r0,[pc,#92] ; [0x14d4] = 0x20000222
        0x00001478:    8001        ..      STRH     r1,[r0,#0]
        0x0000147a:    4817        .H      LDR      r0,[pc,#92] ; [0x14d8] = 0x20000220
        0x0000147c:    8001        ..      STRH     r1,[r0,#0]
        0x0000147e:    4817        .H      LDR      r0,[pc,#92] ; [0x14dc] = 0x20000226
        0x00001480:    8001        ..      STRH     r1,[r0,#0]
        0x00001482:    f7fff97b    ..{.    BL       Detect_Initial_Hall_Position_M0 ; 0x77c
        0x00001486:    f000fa7f    ....    BL       Load_from_data_flash ; 0x1988
        0x0000148a:    b001        ..      ADD      sp,sp,#4
        0x0000148c:    bdf0        ..      POP      {r4-r7,pc}
        0x0000148e:    46c0        .F      MOV      r8,r8
    $d
    __arm_cp.32_0
        0x00001490:    400e0020     ..@    DCD    1074659360
    __arm_cp.32_1
        0x00001494:    400e00fc    ...@    DCD    1074659580
    __arm_cp.32_2
        0x00001498:    2000022e    ...     DCD    536871470
    __arm_cp.32_3
        0x0000149c:    2000022f    /..     DCD    536871471
    __arm_cp.32_4
        0x000014a0:    00020008    ....    DCD    131080
    __arm_cp.32_5
        0x000014a4:    00000404    ....    DCD    1028
    __arm_cp.32_6
        0x000014a8:    e000e404    ....    DCD    3758154756
    __arm_cp.32_7
        0x000014ac:    ff00ffff    ....    DCD    4278255615
    __arm_cp.32_8
        0x000014b0:    00ffffff    ....    DCD    16777215
    __arm_cp.32_9
        0x000014b4:    e000e280    ....    DCD    3758154368
    __arm_cp.32_10
        0x000014b8:    e000e100    ....    DCD    3758153984
    __arm_cp.32_11
        0x000014bc:    2000022b    +..     DCD    536871467
    __arm_cp.32_12
        0x000014c0:    2000022c    ,..     DCD    536871468
    __arm_cp.32_13
        0x000014c4:    2000022a    *..     DCD    536871466
    __arm_cp.32_14
        0x000014c8:    2000022d    -..     DCD    536871469
    __arm_cp.32_15
        0x000014cc:    20000228    (..     DCD    536871464
    __arm_cp.32_16
        0x000014d0:    20000224    $..     DCD    536871460
    __arm_cp.32_17
        0x000014d4:    20000222    "..     DCD    536871458
    __arm_cp.32_18
        0x000014d8:    20000220     ..     DCD    536871456
    __arm_cp.32_19
        0x000014dc:    20000226    &..     DCD    536871462
    $t
    Initialize_OP1
        0x000014e0:    2001        .       MOVS     r0,#1
        0x000014e2:    0301        ..      LSLS     r1,r0,#12
        0x000014e4:    4884        .H      LDR      r0,[pc,#528] ; [0x16f8] = 0x50000208
        0x000014e6:    6802        .h      LDR      r2,[r0,#0]
        0x000014e8:    430a        .C      ORRS     r2,r2,r1
        0x000014ea:    6002        .`      STR      r2,[r0,#0]
        0x000014ec:    4883        .H      LDR      r0,[pc,#524] ; [0x16fc] = 0x5000000c
        0x000014ee:    6802        .h      LDR      r2,[r0,#0]
        0x000014f0:    430a        .C      ORRS     r2,r2,r1
        0x000014f2:    6002        .`      STR      r2,[r0,#0]
        0x000014f4:    6802        .h      LDR      r2,[r0,#0]
        0x000014f6:    438a        .C      BICS     r2,r2,r1
        0x000014f8:    6002        .`      STR      r2,[r0,#0]
        0x000014fa:    213f        ?!      MOVS     r1,#0x3f
        0x000014fc:    010a        ..      LSLS     r2,r1,#4
        0x000014fe:    4966        fI      LDR      r1,[pc,#408] ; [0x1698] = 0x50004100
        0x00001500:    680b        .h      LDR      r3,[r1,#0]
        0x00001502:    4393        .C      BICS     r3,r3,r2
        0x00001504:    3310        .3      ADDS     r3,r3,#0x10
        0x00001506:    600b        .`      STR      r3,[r1,#0]
        0x00001508:    6b42        Bk      LDR      r2,[r0,#0x34]
        0x0000150a:    4b08        .K      LDR      r3,[pc,#32] ; [0x152c] = 0xfff000ff
        0x0000150c:    4013        .@      ANDS     r3,r3,r2
        0x0000150e:    4a08        .J      LDR      r2,[pc,#32] ; [0x1530] = 0x66600
        0x00001510:    189a        ..      ADDS     r2,r3,r2
        0x00001512:    6342        Bc      STR      r2,[r0,#0x34]
        0x00001514:    2007        .       MOVS     r0,#7
        0x00001516:    0480        ..      LSLS     r0,r0,#18
        0x00001518:    684a        Jh      LDR      r2,[r1,#4]
        0x0000151a:    4302        .C      ORRS     r2,r2,r0
        0x0000151c:    604a        J`      STR      r2,[r1,#4]
        0x0000151e:    4805        .H      LDR      r0,[pc,#20] ; [0x1534] = 0x400f0004
        0x00001520:    6801        .h      LDR      r1,[r0,#0]
        0x00001522:    2202        ."      MOVS     r2,#2
        0x00001524:    430a        .C      ORRS     r2,r2,r1
        0x00001526:    6002        .`      STR      r2,[r0,#0]
        0x00001528:    4770        pG      BX       lr
        0x0000152a:    46c0        .F      MOV      r8,r8
    $d
    __arm_cp.23_3
        0x0000152c:    fff000ff    ....    DCD    4293918975
    __arm_cp.23_4
        0x00001530:    00066600    .f..    DCD    419328
    __arm_cp.23_5
        0x00001534:    400f0004    ...@    DCD    1074724868
    $t
    Initialize_PI_Parameters
        0x00001538:    4803        .H      LDR      r0,[pc,#12] ; [0x1548] = 0x2000002c
        0x0000153a:    2100        .!      MOVS     r1,#0
        0x0000153c:    6041        A`      STR      r1,[r0,#4]
        0x0000153e:    4803        .H      LDR      r0,[pc,#12] ; [0x154c] = 0x2000003c
        0x00001540:    6041        A`      STR      r1,[r0,#4]
        0x00001542:    4803        .H      LDR      r0,[pc,#12] ; [0x1550] = 0x2000004c
        0x00001544:    6041        A`      STR      r1,[r0,#4]
        0x00001546:    4770        pG      BX       lr
    $d
    __arm_cp.2_0
        0x00001548:    2000002c    ,..     DCD    536870956
    __arm_cp.2_1
        0x0000154c:    2000003c    <..     DCD    536870972
    __arm_cp.2_2
        0x00001550:    2000004c    L..     DCD    536870988
    $t
    Initialize_Temperature_Sensor
        0x00001554:    4802        .H      LDR      r0,[pc,#8] ; [0x1560] = 0x5000001c
        0x00001556:    6801        .h      LDR      r1,[r0,#0]
        0x00001558:    2201        ."      MOVS     r2,#1
        0x0000155a:    430a        .C      ORRS     r2,r2,r1
        0x0000155c:    6002        .`      STR      r2,[r0,#0]
        0x0000155e:    4770        pG      BX       lr
    $d
    __arm_cp.29_0
        0x00001560:    5000001c    ...P    DCD    1342177308
    $t
    Initialize_Timer0
        0x00001564:    b510        ..      PUSH     {r4,lr}
        0x00001566:    4a64        dJ      LDR      r2,[pc,#400] ; [0x16f8] = 0x50000208
        0x00001568:    6810        .h      LDR      r0,[r2,#0]
        0x0000156a:    2104        .!      MOVS     r1,#4
        0x0000156c:    4308        .C      ORRS     r0,r0,r1
        0x0000156e:    6010        .`      STR      r0,[r2,#0]
        0x00001570:    2001        .       MOVS     r0,#1
        0x00001572:    0283        ..      LSLS     r3,r0,#10
        0x00001574:    68d4        .h      LDR      r4,[r2,#0xc]
        0x00001576:    431c        .C      ORRS     r4,r4,r3
        0x00001578:    60d4        .`      STR      r4,[r2,#0xc]
        0x0000157a:    4a60        `J      LDR      r2,[pc,#384] ; [0x16fc] = 0x5000000c
        0x0000157c:    6813        .h      LDR      r3,[r2,#0]
        0x0000157e:    430b        .C      ORRS     r3,r3,r1
        0x00001580:    6013        .`      STR      r3,[r2,#0]
        0x00001582:    6813        .h      LDR      r3,[r2,#0]
        0x00001584:    438b        .C      BICS     r3,r3,r1
        0x00001586:    6013        .`      STR      r3,[r2,#0]
        0x00001588:    490d        .I      LDR      r1,[pc,#52] ; [0x15c0] = 0x40010000
        0x0000158a:    680a        .h      LDR      r2,[r1,#0]
        0x0000158c:    2303        .#      MOVS     r3,#3
        0x0000158e:    431a        .C      ORRS     r2,r2,r3
        0x00001590:    24fc        .$      MOVS     r4,#0xfc
        0x00001592:    43a2        .C      BICS     r2,r2,r4
        0x00001594:    600a        .`      STR      r2,[r1,#0]
        0x00001596:    4a0b        .J      LDR      r2,[pc,#44] ; [0x15c4] = 0x3a98
        0x00001598:    604a        J`      STR      r2,[r1,#4]
        0x0000159a:    06da        ..      LSLS     r2,r3,#27
        0x0000159c:    680b        .h      LDR      r3,[r1,#0]
        0x0000159e:    4393        .C      BICS     r3,r3,r2
        0x000015a0:    06c2        ..      LSLS     r2,r0,#27
        0x000015a2:    189a        ..      ADDS     r2,r3,r2
        0x000015a4:    600a        .`      STR      r2,[r1,#0]
        0x000015a6:    0742        B.      LSLS     r2,r0,#29
        0x000015a8:    680b        .h      LDR      r3,[r1,#0]
        0x000015aa:    4313        .C      ORRS     r3,r3,r2
        0x000015ac:    600b        .`      STR      r3,[r1,#0]
        0x000015ae:    0782        ..      LSLS     r2,r0,#30
        0x000015b0:    680b        .h      LDR      r3,[r1,#0]
        0x000015b2:    4313        .C      ORRS     r3,r3,r2
        0x000015b4:    600b        .`      STR      r3,[r1,#0]
        0x000015b6:    698a        .i      LDR      r2,[r1,#0x18]
        0x000015b8:    4302        .C      ORRS     r2,r2,r0
        0x000015ba:    618a        .a      STR      r2,[r1,#0x18]
        0x000015bc:    bd10        ..      POP      {r4,pc}
        0x000015be:    46c0        .F      MOV      r8,r8
    $d
    __arm_cp.25_2
        0x000015c0:    40010000    ...@    DCD    1073807360
    __arm_cp.25_3
        0x000015c4:    00003a98    .:..    DCD    15000
    $t
    Initialize_USCI1_SPI1_for_DAC
        0x000015c8:    b570        p.      PUSH     {r4-r6,lr}
        0x000015ca:    2001        .       MOVS     r0,#1
        0x000015cc:    0641        A.      LSLS     r1,r0,#25
        0x000015ce:    4a4a        JJ      LDR      r2,[pc,#296] ; [0x16f8] = 0x50000208
        0x000015d0:    6813        .h      LDR      r3,[r2,#0]
        0x000015d2:    430b        .C      ORRS     r3,r3,r1
        0x000015d4:    6013        .`      STR      r3,[r2,#0]
        0x000015d6:    4a49        IJ      LDR      r2,[pc,#292] ; [0x16fc] = 0x5000000c
        0x000015d8:    6813        .h      LDR      r3,[r2,#0]
        0x000015da:    430b        .C      ORRS     r3,r3,r1
        0x000015dc:    6013        .`      STR      r3,[r2,#0]
        0x000015de:    6813        .h      LDR      r3,[r2,#0]
        0x000015e0:    438b        .C      BICS     r3,r3,r1
        0x000015e2:    6013        .`      STR      r3,[r2,#0]
        0x000015e4:    492a        *I      LDR      r1,[pc,#168] ; [0x1690] = 0x4017005c
        0x000015e6:    460b        .F      MOV      r3,r1
        0x000015e8:    3b5c        \;      SUBS     r3,r3,#0x5c
        0x000015ea:    681c        .h      LDR      r4,[r3,#0]
        0x000015ec:    2507        .%      MOVS     r5,#7
        0x000015ee:    43ac        .C      BICS     r4,r4,r5
        0x000015f0:    601c        .`      STR      r4,[r3,#0]
        0x000015f2:    6018        .`      STR      r0,[r3,#0]
        0x000015f4:    680b        .h      LDR      r3,[r1,#0]
        0x000015f6:    2300        .#      MOVS     r3,#0
        0x000015f8:    600b        .`      STR      r3,[r1,#0]
        0x000015fa:    680b        .h      LDR      r3,[r1,#0]
        0x000015fc:    2440        @$      MOVS     r4,#0x40
        0x000015fe:    431c        .C      ORRS     r4,r4,r3
        0x00001600:    600c        .`      STR      r4,[r1,#0]
        0x00001602:    460b        .F      MOV      r3,r1
        0x00001604:    3b54        T;      SUBS     r3,r3,#0x54
        0x00001606:    681c        .h      LDR      r4,[r3,#0]
        0x00001608:    4d22        "M      LDR      r5,[pc,#136] ; [0x1694] = 0xfc00ffff
        0x0000160a:    4025        %@      ANDS     r5,r5,r4
        0x0000160c:    0444        D.      LSLS     r4,r0,#17
        0x0000160e:    192c        ,.      ADDS     r4,r5,r4
        0x00001610:    601c        .`      STR      r4,[r3,#0]
        0x00001612:    460b        .F      MOV      r3,r1
        0x00001614:    3b30        0;      SUBS     r3,r3,#0x30
        0x00001616:    681c        .h      LDR      r4,[r3,#0]
        0x00001618:    25a0        .%      MOVS     r5,#0xa0
        0x0000161a:    43ac        .C      BICS     r4,r4,r5
        0x0000161c:    601c        .`      STR      r4,[r3,#0]
        0x0000161e:    681c        .h      LDR      r4,[r3,#0]
        0x00001620:    4384        .C      BICS     r4,r4,r0
        0x00001622:    601c        .`      STR      r4,[r3,#0]
        0x00001624:    680b        .h      LDR      r3,[r1,#0]
        0x00001626:    2408        .$      MOVS     r4,#8
        0x00001628:    43a3        .C      BICS     r3,r3,r4
        0x0000162a:    600b        .`      STR      r3,[r1,#0]
        0x0000162c:    07c3        ..      LSLS     r3,r0,#31
        0x0000162e:    680c        .h      LDR      r4,[r1,#0]
        0x00001630:    431c        .C      ORRS     r4,r4,r3
        0x00001632:    600c        .`      STR      r4,[r1,#0]
        0x00001634:    230f        .#      MOVS     r3,#0xf
        0x00001636:    051c        ..      LSLS     r4,r3,#20
        0x00001638:    6b55        Uk      LDR      r5,[r2,#0x34]
        0x0000163a:    43a5        .C      BICS     r5,r5,r4
        0x0000163c:    2405        .$      MOVS     r4,#5
        0x0000163e:    0566        f.      LSLS     r6,r4,#21
        0x00001640:    19ad        ..      ADDS     r5,r5,r6
        0x00001642:    6355        Uc      STR      r5,[r2,#0x34]
        0x00001644:    071d        ..      LSLS     r5,r3,#28
        0x00001646:    6b56        Vk      LDR      r6,[r2,#0x34]
        0x00001648:    43ae        .C      BICS     r6,r6,r5
        0x0000164a:    0764        d.      LSLS     r4,r4,#29
        0x0000164c:    1934        4.      ADDS     r4,r6,r4
        0x0000164e:    6354        Tc      STR      r4,[r2,#0x34]
        0x00001650:    061b        ..      LSLS     r3,r3,#24
        0x00001652:    6b14        .k      LDR      r4,[r2,#0x30]
        0x00001654:    439c        .C      BICS     r4,r4,r3
        0x00001656:    6314        .c      STR      r4,[r2,#0x30]
        0x00001658:    2303        .#      MOVS     r3,#3
        0x0000165a:    029c        ..      LSLS     r4,r3,#10
        0x0000165c:    4a0e        .J      LDR      r2,[pc,#56] ; [0x1698] = 0x50004100
        0x0000165e:    6815        .h      LDR      r5,[r2,#0]
        0x00001660:    43a5        .C      BICS     r5,r5,r4
        0x00001662:    0284        ..      LSLS     r4,r0,#10
        0x00001664:    192c        ,.      ADDS     r4,r5,r4
        0x00001666:    6014        .`      STR      r4,[r2,#0]
        0x00001668:    039c        ..      LSLS     r4,r3,#14
        0x0000166a:    6815        .h      LDR      r5,[r2,#0]
        0x0000166c:    43a5        .C      BICS     r5,r5,r4
        0x0000166e:    0384        ..      LSLS     r4,r0,#14
        0x00001670:    192c        ,.      ADDS     r4,r5,r4
        0x00001672:    6014        .`      STR      r4,[r2,#0]
        0x00001674:    031b        ..      LSLS     r3,r3,#12
        0x00001676:    3a40        @:      SUBS     r2,r2,#0x40
        0x00001678:    6814        .h      LDR      r4,[r2,#0]
        0x0000167a:    439c        .C      BICS     r4,r4,r3
        0x0000167c:    0300        ..      LSLS     r0,r0,#12
        0x0000167e:    1820         .      ADDS     r0,r4,r0
        0x00001680:    6010        .`      STR      r0,[r2,#0]
        0x00001682:    3958        X9      SUBS     r1,r1,#0x58
        0x00001684:    6808        .h      LDR      r0,[r1,#0]
        0x00001686:    2204        ."      MOVS     r2,#4
        0x00001688:    4302        .C      ORRS     r2,r2,r0
        0x0000168a:    600a        .`      STR      r2,[r1,#0]
        0x0000168c:    bd70        p.      POP      {r4-r6,pc}
        0x0000168e:    46c0        .F      MOV      r8,r8
    $d
    __arm_cp.26_2
        0x00001690:    4017005c    \..@    DCD    1075249244
    __arm_cp.26_3
        0x00001694:    fc00ffff    ....    DCD    4227923967
    __arm_cp.26_4
        0x00001698:    50004100    .A.P    DCD    1342193920
    $t
    Initialize_USCI_UART
        0x0000169c:    b570        p.      PUSH     {r4-r6,lr}
        0x0000169e:    2501        .%      MOVS     r5,#1
        0x000016a0:    06a8        ..      LSLS     r0,r5,#26
        0x000016a2:    4915        .I      LDR      r1,[pc,#84] ; [0x16f8] = 0x50000208
        0x000016a4:    680a        .h      LDR      r2,[r1,#0]
        0x000016a6:    4302        .C      ORRS     r2,r2,r0
        0x000016a8:    600a        .`      STR      r2,[r1,#0]
        0x000016aa:    4c14        .L      LDR      r4,[pc,#80] ; [0x16fc] = 0x5000000c
        0x000016ac:    6821        !h      LDR      r1,[r4,#0]
        0x000016ae:    4301        .C      ORRS     r1,r1,r0
        0x000016b0:    6021        !`      STR      r1,[r4,#0]
        0x000016b2:    6821        !h      LDR      r1,[r4,#0]
        0x000016b4:    4381        .C      BICS     r1,r1,r0
        0x000016b6:    6021        !`      STR      r1,[r4,#0]
        0x000016b8:    4811        .H      LDR      r0,[pc,#68] ; [0x1700] = 0x40270000
        0x000016ba:    4912        .I      LDR      r1,[pc,#72] ; [0x1704] = 0x3d0900
        0x000016bc:    f001f804    ....    BL       UUART_Open ; 0x26c8
        0x000016c0:    200f        .       MOVS     r0,#0xf
        0x000016c2:    0700        ..      LSLS     r0,r0,#28
        0x000016c4:    6b21        !k      LDR      r1,[r4,#0x30]
        0x000016c6:    4381        .C      BICS     r1,r1,r0
        0x000016c8:    220b        ."      MOVS     r2,#0xb
        0x000016ca:    0710        ..      LSLS     r0,r2,#28
        0x000016cc:    1808        ..      ADDS     r0,r1,r0
        0x000016ce:    6320         c      STR      r0,[r4,#0x30]
        0x000016d0:    2003        .       MOVS     r0,#3
        0x000016d2:    0383        ..      LSLS     r3,r0,#14
        0x000016d4:    490c        .I      LDR      r1,[pc,#48] ; [0x1708] = 0x500040c0
        0x000016d6:    680e        .h      LDR      r6,[r1,#0]
        0x000016d8:    439e        .C      BICS     r6,r6,r3
        0x000016da:    03ab        ..      LSLS     r3,r5,#14
        0x000016dc:    18f3        ..      ADDS     r3,r6,r3
        0x000016de:    600b        .`      STR      r3,[r1,#0]
        0x000016e0:    6b63        ck      LDR      r3,[r4,#0x34]
        0x000016e2:    4313        .C      ORRS     r3,r3,r2
        0x000016e4:    2204        ."      MOVS     r2,#4
        0x000016e6:    4393        .C      BICS     r3,r3,r2
        0x000016e8:    6363        cc      STR      r3,[r4,#0x34]
        0x000016ea:    6c0a        .l      LDR      r2,[r1,#0x40]
        0x000016ec:    4382        .C      BICS     r2,r2,r0
        0x000016ee:    640a        .d      STR      r2,[r1,#0x40]
        0x000016f0:    f7fffd50    ..P.    BL       Initialize_GDMA ; 0x1194
        0x000016f4:    bd70        p.      POP      {r4-r6,pc}
        0x000016f6:    46c0        .F      MOV      r8,r8
    $d
    __arm_cp.31_0
        0x000016f8:    50000208    ...P    DCD    1342177800
    __arm_cp.31_1
        0x000016fc:    5000000c    ...P    DCD    1342177292
    __arm_cp.31_2
        0x00001700:    40270000    ..'@    DCD    1076297728
    __arm_cp.31_3
        0x00001704:    003d0900    ..=.    DCD    4000000
    __arm_cp.31_4
        0x00001708:    500040c0    .@.P    DCD    1342193856
    $t
    Initialize_Variabls
        0x0000170c:    b5f0        ..      PUSH     {r4-r7,lr}
        0x0000170e:    b081        ..      SUB      sp,sp,#4
        0x00001710:    4c91        .L      LDR      r4,[pc,#580] ; [0x1958] = 0x200000b4
        0x00001712:    2500        .%      MOVS     r5,#0
        0x00001714:    492c        ,I      LDR      r1,[pc,#176] ; [0x17c8] = 0x3fdf0002
        0x00001716:    4a2d        -J      LDR      r2,[pc,#180] ; [0x17cc] = 0x79187fbe
        0x00001718:    4b2d        -K      LDR      r3,[pc,#180] ; [0x17d0] = 0x7fbe0005
        0x0000171a:    4e2e        .N      LDR      r6,[pc,#184] ; [0x17d4] = 0x198c0019
        0x0000171c:    4f2e        .O      LDR      r7,[pc,#184] ; [0x17d8] = 0x32003c
        0x0000171e:    482f        /H      LDR      r0,[pc,#188] ; [0x17dc] = 0x13a98
        0x00001720:    c481        ..      STM      r4!,{r0,r7}
        0x00001722:    6026        &`      STR      r6,[r4,#0]
        0x00001724:    6063        c`      STR      r3,[r4,#4]
        0x00001726:    60a2        .`      STR      r2,[r4,#8]
        0x00001728:    60e1        .`      STR      r1,[r4,#0xc]
        0x0000172a:    4826        &H      LDR      r0,[pc,#152] ; [0x17c4] = 0x40bb8
        0x0000172c:    6120         a      STR      r0,[r4,#0x10]
        0x0000172e:    6165        ea      STR      r5,[r4,#0x14]
        0x00001730:    61a5        .a      STR      r5,[r4,#0x18]
        0x00001732:    61e5        .a      STR      r5,[r4,#0x1c]
        0x00001734:    6225        %b      STR      r5,[r4,#0x20]
        0x00001736:    6265        eb      STR      r5,[r4,#0x24]
        0x00001738:    62a5        .b      STR      r5,[r4,#0x28]
        0x0000173a:    62e5        .b      STR      r5,[r4,#0x2c]
        0x0000173c:    8625        %.      STRH     r5,[r4,#0x30]
        0x0000173e:    6365        ec      STR      r5,[r4,#0x34]
        0x00001740:    63a5        .c      STR      r5,[r4,#0x38]
        0x00001742:    3c08        .<      SUBS     r4,r4,#8
        0x00001744:    4620         F      MOV      r0,r4
        0x00001746:    303c        <0      ADDS     r0,r0,#0x3c
        0x00001748:    7285        .r      STRB     r5,[r0,#0xa]
        0x0000174a:    8105        ..      STRH     r5,[r0,#8]
        0x0000174c:    4620         F      MOV      r0,r4
        0x0000174e:    3048        H0      ADDS     r0,r0,#0x48
        0x00001750:    212b        +!      MOVS     r1,#0x2b
        0x00001752:    f7fefd0c    ....    BL       __aeabi_memclr ; 0x16e
        0x00001756:    2096        .       MOVS     r0,#0x96
        0x00001758:    5425        %T      STRB     r5,[r4,r0]
        0x0000175a:    2094        .       MOVS     r0,#0x94
        0x0000175c:    5225        %R      STRH     r5,[r4,r0]
        0x0000175e:    2090        .       MOVS     r0,#0x90
        0x00001760:    491f        .I      LDR      r1,[pc,#124] ; [0x17e0] = 0xbb8
        0x00001762:    5221        !R      STRH     r1,[r4,r0]
        0x00001764:    20b0        .       MOVS     r0,#0xb0
        0x00001766:    5425        %T      STRB     r5,[r4,r0]
        0x00001768:    481e        .H      LDR      r0,[pc,#120] ; [0x17e4] = 0x50004818
        0x0000176a:    6800        .h      LDR      r0,[r0,#0]
        0x0000176c:    2198        .!      MOVS     r1,#0x98
        0x0000176e:    5065        eP      STR      r5,[r4,r1]
        0x00001770:    218c        .!      MOVS     r1,#0x8c
        0x00001772:    4a1d        .J      LDR      r2,[pc,#116] ; [0x17e8] = 0x1fef8000
        0x00001774:    5062        bP      STR      r2,[r4,r1]
        0x00001776:    2188        .!      MOVS     r1,#0x88
        0x00001778:    4a1c        .J      LDR      r2,[pc,#112] ; [0x17ec] = 0x3fdf
        0x0000177a:    5062        bP      STR      r2,[r4,r1]
        0x0000177c:    2184        .!      MOVS     r1,#0x84
        0x0000177e:    4a1c        .J      LDR      r2,[pc,#112] ; [0x17f0] = 0x13fc8000
        0x00001780:    5062        bP      STR      r2,[r4,r1]
        0x00001782:    2180        .!      MOVS     r1,#0x80
        0x00001784:    4a1b        .J      LDR      r2,[pc,#108] ; [0x17f4] = 0x27f9
        0x00001786:    5062        bP      STR      r2,[r4,r1]
        0x00001788:    2173        s!      MOVS     r1,#0x73
        0x0000178a:    5460        `T      STRB     r0,[r4,r1]
        0x0000178c:    20b2        .       MOVS     r0,#0xb2
        0x0000178e:    5225        %R      STRH     r5,[r4,r0]
        0x00001790:    20ac        .       MOVS     r0,#0xac
        0x00001792:    4919        .I      LDR      r1,[pc,#100] ; [0x17f8] = 0x8f0d1
        0x00001794:    5021        !P      STR      r1,[r4,r0]
        0x00001796:    20a8        .       MOVS     r0,#0xa8
        0x00001798:    2195        .!      MOVS     r1,#0x95
        0x0000179a:    5021        !P      STR      r1,[r4,r0]
        0x0000179c:    4817        .H      LDR      r0,[pc,#92] ; [0x17fc] = 0x3c8c0000
        0x0000179e:    4918        .I      LDR      r1,[pc,#96] ; [0x1800] = 0x7918
        0x000017a0:    67a1        .g      STR      r1,[r4,#0x78]
        0x000017a2:    67e0        .g      STR      r0,[r4,#0x7c]
        0x000017a4:    4620         F      MOV      r0,r4
        0x000017a6:    3098        .0      ADDS     r0,r0,#0x98
        0x000017a8:    6045        E`      STR      r5,[r0,#4]
        0x000017aa:    6085        .`      STR      r5,[r0,#8]
        0x000017ac:    60c5        .`      STR      r5,[r0,#0xc]
        0x000017ae:    4620         F      MOV      r0,r4
        0x000017b0:    30b2        .0      ADDS     r0,r0,#0xb2
        0x000017b2:    8045        E.      STRH     r5,[r0,#2]
        0x000017b4:    8085        ..      STRH     r5,[r0,#4]
        0x000017b6:    20ba        .       MOVS     r0,#0xba
        0x000017b8:    5225        %R      STRH     r5,[r4,r0]
        0x000017ba:    34ba        .4      ADDS     r4,r4,#0xba
        0x000017bc:    7125        %q      STRB     r5,[r4,#4]
        0x000017be:    8065        e.      STRH     r5,[r4,#2]
        0x000017c0:    b001        ..      ADD      sp,sp,#4
        0x000017c2:    bdf0        ..      POP      {r4-r7,pc}
    $d
    __arm_cp.0_1
        0x000017c4:    00040bb8    ....    DCD    265144
    __arm_cp.0_2
        0x000017c8:    3fdf0002    ...?    DCD    1071579138
    __arm_cp.0_3
        0x000017cc:    79187fbe    ...y    DCD    2031648702
    __arm_cp.0_4
        0x000017d0:    7fbe0005    ....    DCD    2143158277
    __arm_cp.0_5
        0x000017d4:    198c0019    ....    DCD    428605465
    __arm_cp.0_6
        0x000017d8:    0032003c    <.2.    DCD    3276860
    __arm_cp.0_7
        0x000017dc:    00013a98    .:..    DCD    80536
    __arm_cp.0_8
        0x000017e0:    00000bb8    ....    DCD    3000
    __arm_cp.0_9
        0x000017e4:    50004818    .H.P    DCD    1342195736
    __arm_cp.0_10
        0x000017e8:    1fef8000    ....    DCD    535789568
    __arm_cp.0_11
        0x000017ec:    00003fdf    .?..    DCD    16351
    __arm_cp.0_12
        0x000017f0:    13fc8000    ....    DCD    335314944
    __arm_cp.0_13
        0x000017f4:    000027f9    .'..    DCD    10233
    __arm_cp.0_14
        0x000017f8:    0008f0d1    ....    DCD    585937
    __arm_cp.0_15
        0x000017fc:    3c8c0000    ...<    DCD    1015808000
    __arm_cp.0_16
        0x00001800:    00007918    .y..    DCD    31000
    $t
    Iu_Iv_Zero_Current_Calibration
        0x00001804:    b5f0        ..      PUSH     {r4-r7,lr}
        0x00001806:    b083        ..      SUB      sp,sp,#0xc
        0x00001808:    2601        .&      MOVS     r6,#1
        0x0000180a:    0233        3.      LSLS     r3,r6,#8
        0x0000180c:    2200        ."      MOVS     r2,#0
        0x0000180e:    4c4f        OL      LDR      r4,[pc,#316] ; [0x194c] = 0x400e0020
        0x00001810:    4615        .F      MOV      r5,r2
        0x00001812:    4610        .F      MOV      r0,r2
        0x00001814:    9602        ..      STR      r6,[sp,#8]
        0x00001816:    9000        ..      STR      r0,[sp,#0]
        0x00001818:    6820         h      LDR      r0,[r4,#0]
        0x0000181a:    21c0        .!      MOVS     r1,#0xc0
        0x0000181c:    9101        ..      STR      r1,[sp,#4]
        0x0000181e:    4388        .C      BICS     r0,r0,r1
        0x00001820:    6020         `      STR      r0,[r4,#0]
        0x00001822:    0470        p.      LSLS     r0,r6,#17
        0x00001824:    4627        'F      MOV      r7,r4
        0x00001826:    3f10        .?      SUBS     r7,r7,#0x10
        0x00001828:    6839        9h      LDR      r1,[r7,#0]
        0x0000182a:    b289        ..      UXTH     r1,r1
        0x0000182c:    1808        ..      ADDS     r0,r1,r0
        0x0000182e:    6038        8`      STR      r0,[r7,#0]
        0x00001830:    02b0        ..      LSLS     r0,r6,#10
        0x00001832:    6821        !h      LDR      r1,[r4,#0]
        0x00001834:    4381        .C      BICS     r1,r1,r0
        0x00001836:    6021        !`      STR      r1,[r4,#0]
        0x00001838:    6123        #a      STR      r3,[r4,#0x10]
        0x0000183a:    02f0        ..      LSLS     r0,r6,#11
        0x0000183c:    6821        !h      LDR      r1,[r4,#0]
        0x0000183e:    4301        .C      ORRS     r1,r1,r0
        0x00001840:    6021        !`      STR      r1,[r4,#0]
        0x00001842:    6920         i      LDR      r0,[r4,#0x10]
        0x00001844:    4218        .B      TST      r0,r3
        0x00001846:    d0fc        ..      BEQ      0x1842 ; Iu_Iv_Zero_Current_Calibration + 62
        0x00001848:    6920         i      LDR      r0,[r4,#0x10]
        0x0000184a:    4318        .C      ORRS     r0,r0,r3
        0x0000184c:    6120         a      STR      r0,[r4,#0x10]
        0x0000184e:    4840        @H      LDR      r0,[pc,#256] ; [0x1950] = 0x400e00c4
        0x00001850:    6806        .h      LDR      r6,[r0,#0]
        0x00001852:    6821        !h      LDR      r1,[r4,#0]
        0x00001854:    9801        ..      LDR      r0,[sp,#4]
        0x00001856:    4381        .C      BICS     r1,r1,r0
        0x00001858:    6021        !`      STR      r1,[r4,#0]
        0x0000185a:    6839        9h      LDR      r1,[r7,#0]
        0x0000185c:    483d        =H      LDR      r0,[pc,#244] ; [0x1954] = 0xffff0000
        0x0000185e:    4001        .@      ANDS     r1,r1,r0
        0x00001860:    3108        .1      ADDS     r1,r1,#8
        0x00001862:    6039        9`      STR      r1,[r7,#0]
        0x00001864:    6821        !h      LDR      r1,[r4,#0]
        0x00001866:    2704        .'      MOVS     r7,#4
        0x00001868:    43b9        .C      BICS     r1,r1,r7
        0x0000186a:    6021        !`      STR      r1,[r4,#0]
        0x0000186c:    9802        ..      LDR      r0,[sp,#8]
        0x0000186e:    6120         a      STR      r0,[r4,#0x10]
        0x00001870:    6821        !h      LDR      r1,[r4,#0]
        0x00001872:    2708        .'      MOVS     r7,#8
        0x00001874:    430f        .C      ORRS     r7,r7,r1
        0x00001876:    6027        '`      STR      r7,[r4,#0]
        0x00001878:    b2b0        ..      UXTH     r0,r6
        0x0000187a:    6921        !i      LDR      r1,[r4,#0x10]
        0x0000187c:    07c9        ..      LSLS     r1,r1,#31
        0x0000187e:    d0fc        ..      BEQ      0x187a ; Iu_Iv_Zero_Current_Calibration + 118
        0x00001880:    6921        !i      LDR      r1,[r4,#0x10]
        0x00001882:    9e02        ..      LDR      r6,[sp,#8]
        0x00001884:    4331        1C      ORRS     r1,r1,r6
        0x00001886:    6121        !a      STR      r1,[r4,#0x10]
        0x00001888:    1945        E.      ADDS     r5,r0,r5
        0x0000188a:    6ee0        .n      LDR      r0,[r4,#0x6c]
        0x0000188c:    b280        ..      UXTH     r0,r0
        0x0000188e:    1882        ..      ADDS     r2,r0,r2
        0x00001890:    9900        ..      LDR      r1,[sp,#0]
        0x00001892:    1c48        H.      ADDS     r0,r1,#1
        0x00001894:    291f        .)      CMP      r1,#0x1f
        0x00001896:    d3be        ..      BCC      0x1816 ; Iu_Iv_Zero_Current_Calibration + 18
        0x00001898:    0950        P.      LSRS     r0,r2,#5
        0x0000189a:    4c2f        /L      LDR      r4,[pc,#188] ; [0x1958] = 0x200000b4
        0x0000189c:    8620         .      STRH     r0,[r4,#0x30]
        0x0000189e:    0969        i.      LSRS     r1,r5,#5
        0x000018a0:    85e1        ..      STRH     r1,[r4,#0x2e]
        0x000018a2:    4a2e        .J      LDR      r2,[pc,#184] ; [0x195c] = 0xfffff738
        0x000018a4:    b209        ..      SXTH     r1,r1
        0x000018a6:    1889        ..      ADDS     r1,r1,r2
        0x000018a8:    4b2d        -K      LDR      r3,[pc,#180] ; [0x1960] = 0xfffffe71
        0x000018aa:    4299        .B      CMP      r1,r3
        0x000018ac:    d304        ..      BCC      0x18b8 ; Iu_Iv_Zero_Current_Calibration + 180
        0x000018ae:    b280        ..      UXTH     r0,r0
        0x000018b0:    1880        ..      ADDS     r0,r0,r2
        0x000018b2:    492c        ,I      LDR      r1,[pc,#176] ; [0x1964] = 0xfffffe70
        0x000018b4:    4288        .B      CMP      r0,r1
        0x000018b6:    d801        ..      BHI      0x18bc ; Iu_Iv_Zero_Current_Calibration + 184
        0x000018b8:    2094        .       MOVS     r0,#0x94
        0x000018ba:    5426        &T      STRB     r6,[r4,r0]
        0x000018bc:    2594        .%      MOVS     r5,#0x94
        0x000018be:    5d60        `]      LDRB     r0,[r4,r5]
        0x000018c0:    2801        .(      CMP      r0,#1
        0x000018c2:    d138        8.      BNE      0x1936 ; Iu_Iv_Zero_Current_Calibration + 306
        0x000018c4:    20b6        .       MOVS     r0,#0xb6
        0x000018c6:    2100        .!      MOVS     r1,#0
        0x000018c8:    5421        !T      STRB     r1,[r4,r0]
        0x000018ca:    2072        r       MOVS     r0,#0x72
        0x000018cc:    5421        !T      STRB     r1,[r4,r0]
        0x000018ce:    20b5        .       MOVS     r0,#0xb5
        0x000018d0:    5421        !T      STRB     r1,[r4,r0]
        0x000018d2:    2007        .       MOVS     r0,#7
        0x000018d4:    0501        ..      LSLS     r1,r0,#20
        0x000018d6:    4824        $H      LDR      r0,[pc,#144] ; [0x1968] = 0x40040078
        0x000018d8:    6802        .h      LDR      r2,[r0,#0]
        0x000018da:    430a        .C      ORRS     r2,r2,r1
        0x000018dc:    6002        .`      STR      r2,[r0,#0]
        0x000018de:    6801        .h      LDR      r1,[r0,#0]
        0x000018e0:    9a01        ..      LDR      r2,[sp,#4]
        0x000018e2:    4311        .C      ORRS     r1,r1,r2
        0x000018e4:    223f        ?"      MOVS     r2,#0x3f
        0x000018e6:    43d3        .C      MVNS     r3,r2
        0x000018e8:    4019        .@      ANDS     r1,r1,r3
        0x000018ea:    6001        .`      STR      r1,[r0,#0]
        0x000018ec:    0211        ..      LSLS     r1,r2,#8
        0x000018ee:    6802        .h      LDR      r2,[r0,#0]
        0x000018f0:    430a        .C      ORRS     r2,r2,r1
        0x000018f2:    6002        .`      STR      r2,[r0,#0]
        0x000018f4:    481d        .H      LDR      r0,[pc,#116] ; [0x196c] = 0x50004000
        0x000018f6:    6881        .h      LDR      r1,[r0,#8]
        0x000018f8:    4019        .@      ANDS     r1,r1,r3
        0x000018fa:    6081        .`      STR      r1,[r0,#8]
        0x000018fc:    6801        .h      LDR      r1,[r0,#0]
        0x000018fe:    4a1c        .J      LDR      r2,[pc,#112] ; [0x1970] = 0xfffff000
        0x00001900:    400a        .@      ANDS     r2,r2,r1
        0x00001902:    491c        .I      LDR      r1,[pc,#112] ; [0x1974] = 0x555
        0x00001904:    1851        Q.      ADDS     r1,r2,r1
        0x00001906:    6001        .`      STR      r1,[r0,#0]
        0x00001908:    20ff        .       MOVS     r0,#0xff
        0x0000190a:    0600        ..      LSLS     r0,r0,#24
        0x0000190c:    491a        .I      LDR      r1,[pc,#104] ; [0x1978] = 0x50000030
        0x0000190e:    680a        .h      LDR      r2,[r1,#0]
        0x00001910:    4002        .@      ANDS     r2,r2,r0
        0x00001912:    600a        .`      STR      r2,[r1,#0]
        0x00001914:    f7fffd06    ....    BL       Initialize_Motor_Parameters ; 0x1324
        0x00001918:    f7fffe0e    ....    BL       Initialize_PI_Parameters ; 0x1538
        0x0000191c:    4817        .H      LDR      r0,[pc,#92] ; [0x197c] = 0x20000208
        0x0000191e:    8800        ..      LDRH     r0,[r0,#0]
        0x00001920:    85e0        ..      STRH     r0,[r4,#0x2e]
        0x00001922:    4817        .H      LDR      r0,[pc,#92] ; [0x1980] = 0x2000020a
        0x00001924:    8800        ..      LDRH     r0,[r0,#0]
        0x00001926:    8620         .      STRH     r0,[r4,#0x30]
        0x00001928:    4816        .H      LDR      r0,[pc,#88] ; [0x1984] = 0x2000020c
        0x0000192a:    8800        ..      LDRH     r0,[r0,#0]
        0x0000192c:    8660        `.      STRH     r0,[r4,#0x32]
        0x0000192e:    5d60        `]      LDRB     r0,[r4,r5]
        0x00001930:    2801        .(      CMP      r0,#1
        0x00001932:    d100        ..      BNE      0x1936 ; Iu_Iv_Zero_Current_Calibration + 306
        0x00001934:    e7fe        ..      B        0x1934 ; Iu_Iv_Zero_Current_Calibration + 304
        0x00001936:    8de0        ..      LDRH     r0,[r4,#0x2e]
        0x00001938:    4910        .I      LDR      r1,[pc,#64] ; [0x197c] = 0x20000208
        0x0000193a:    8008        ..      STRH     r0,[r1,#0]
        0x0000193c:    8e20         .      LDRH     r0,[r4,#0x30]
        0x0000193e:    4910        .I      LDR      r1,[pc,#64] ; [0x1980] = 0x2000020a
        0x00001940:    8008        ..      STRH     r0,[r1,#0]
        0x00001942:    8e60        `.      LDRH     r0,[r4,#0x32]
        0x00001944:    490f        .I      LDR      r1,[pc,#60] ; [0x1984] = 0x2000020c
        0x00001946:    8008        ..      STRH     r0,[r1,#0]
        0x00001948:    b003        ..      ADD      sp,sp,#0xc
        0x0000194a:    bdf0        ..      POP      {r4-r7,pc}
    $d
    __arm_cp.33_0
        0x0000194c:    400e0020     ..@    DCD    1074659360
    __arm_cp.33_1
        0x00001950:    400e00c4    ...@    DCD    1074659524
    __arm_cp.33_2
        0x00001954:    ffff0000    ....    DCD    4294901760
    __arm_cp.33_3
        0x00001958:    200000b4    ...     DCD    536871092
    __arm_cp.33_4
        0x0000195c:    fffff738    8...    DCD    4294965048
    __arm_cp.33_5
        0x00001960:    fffffe71    q...    DCD    4294966897
    __arm_cp.33_6
        0x00001964:    fffffe70    p...    DCD    4294966896
    __arm_cp.33_7
        0x00001968:    40040078    x..@    DCD    1074004088
    __arm_cp.33_8
        0x0000196c:    50004000    .@.P    DCD    1342193664
    __arm_cp.33_9
        0x00001970:    fffff000    ....    DCD    4294963200
    __arm_cp.33_10
        0x00001974:    00000555    U...    DCD    1365
    __arm_cp.33_11
        0x00001978:    50000030    0..P    DCD    1342177328
    __arm_cp.33_12
        0x0000197c:    20000208    ...     DCD    536871432
    __arm_cp.33_13
        0x00001980:    2000020a    ...     DCD    536871434
    __arm_cp.33_14
        0x00001984:    2000020c    ...     DCD    536871436
    $t
    Load_from_data_flash
        0x00001988:    b580        ..      PUSH     {r7,lr}
        0x0000198a:    f000ffd5    ....    BL       data_flash_is_empty ; 0x2938
        0x0000198e:    2800        .(      CMP      r0,#0
        0x00001990:    d000        ..      BEQ      0x1994 ; Load_from_data_flash + 12
        0x00001992:    bd80        ..      POP      {r7,pc}
        0x00001994:    f001f9a8    ....    BL       read_data_flash_to_CMD_temp ; 0x2ce8
        0x00001998:    bd80        ..      POP      {r7,pc}
    PI_Id_current
        0x0000199a:    b5b0        ..      PUSH     {r4,r5,r7,lr}
        0x0000199c:    232a        *#      MOVS     r3,#0x2a
        0x0000199e:    5ec4        .^      LDRSH    r4,[r0,r3]
        0x000019a0:    600c        .`      STR      r4,[r1,#0]
        0x000019a2:    68cb        .h      LDR      r3,[r1,#0xc]
        0x000019a4:    4363        cC      MULS     r3,r4,r3
        0x000019a6:    684d        Mh      LDR      r5,[r1,#4]
        0x000019a8:    18ed        ..      ADDS     r5,r5,r3
        0x000019aa:    604d        M`      STR      r5,[r1,#4]
        0x000019ac:    2380        .#      MOVS     r3,#0x80
        0x000019ae:    58c3        .X      LDR      r3,[r0,r3]
        0x000019b0:    3080        .0      ADDS     r0,r0,#0x80
        0x000019b2:    6840        @h      LDR      r0,[r0,#4]
        0x000019b4:    4285        .B      CMP      r5,r0
        0x000019b6:    da02        ..      BGE      0x19be ; PI_Id_current + 36
        0x000019b8:    4240        @B      RSBS     r0,r0,#0
        0x000019ba:    4285        .B      CMP      r5,r0
        0x000019bc:    dc00        ..      BGT      0x19c0 ; PI_Id_current + 38
        0x000019be:    6048        H`      STR      r0,[r1,#4]
        0x000019c0:    6848        Hh      LDR      r0,[r1,#4]
        0x000019c2:    6889        .h      LDR      r1,[r1,#8]
        0x000019c4:    434c        LC      MULS     r4,r1,r4
        0x000019c6:    1820         .      ADDS     r0,r4,r0
        0x000019c8:    13c0        ..      ASRS     r0,r0,#15
        0x000019ca:    1881        ..      ADDS     r1,r0,r2
        0x000019cc:    b21a        ..      SXTH     r2,r3
        0x000019ce:    4254        TB      RSBS     r4,r2,#0
        0x000019d0:    42a1        .B      CMP      r1,r4
        0x000019d2:    4608        .F      MOV      r0,r1
        0x000019d4:    dd03        ..      BLE      0x19de ; PI_Id_current + 68
        0x000019d6:    4291        .B      CMP      r1,r2
        0x000019d8:    da04        ..      BGE      0x19e4 ; PI_Id_current + 74
        0x000019da:    b200        ..      SXTH     r0,r0
        0x000019dc:    bdb0        ..      POP      {r4,r5,r7,pc}
        0x000019de:    4620         F      MOV      r0,r4
        0x000019e0:    4291        .B      CMP      r1,r2
        0x000019e2:    dbfa        ..      BLT      0x19da ; PI_Id_current + 64
        0x000019e4:    4618        .F      MOV      r0,r3
        0x000019e6:    b200        ..      SXTH     r0,r0
        0x000019e8:    bdb0        ..      POP      {r4,r5,r7,pc}
    PI_Iq_current
        0x000019ea:    b5b0        ..      PUSH     {r4,r5,r7,lr}
        0x000019ec:    232c        ,#      MOVS     r3,#0x2c
        0x000019ee:    5ec4        .^      LDRSH    r4,[r0,r3]
        0x000019f0:    600c        .`      STR      r4,[r1,#0]
        0x000019f2:    68cb        .h      LDR      r3,[r1,#0xc]
        0x000019f4:    4363        cC      MULS     r3,r4,r3
        0x000019f6:    684d        Mh      LDR      r5,[r1,#4]
        0x000019f8:    195d        ].      ADDS     r5,r3,r5
        0x000019fa:    604d        M`      STR      r5,[r1,#4]
        0x000019fc:    6f83        .o      LDR      r3,[r0,#0x78]
        0x000019fe:    6fc0        .o      LDR      r0,[r0,#0x7c]
        0x00001a00:    4285        .B      CMP      r5,r0
        0x00001a02:    da02        ..      BGE      0x1a0a ; PI_Iq_current + 32
        0x00001a04:    4240        @B      RSBS     r0,r0,#0
        0x00001a06:    4285        .B      CMP      r5,r0
        0x00001a08:    dc00        ..      BGT      0x1a0c ; PI_Iq_current + 34
        0x00001a0a:    6048        H`      STR      r0,[r1,#4]
        0x00001a0c:    6848        Hh      LDR      r0,[r1,#4]
        0x00001a0e:    6889        .h      LDR      r1,[r1,#8]
        0x00001a10:    434c        LC      MULS     r4,r1,r4
        0x00001a12:    1820         .      ADDS     r0,r4,r0
        0x00001a14:    13c0        ..      ASRS     r0,r0,#15
        0x00001a16:    1881        ..      ADDS     r1,r0,r2
        0x00001a18:    425a        ZB      RSBS     r2,r3,#0
        0x00001a1a:    4291        .B      CMP      r1,r2
        0x00001a1c:    4608        .F      MOV      r0,r1
        0x00001a1e:    dd03        ..      BLE      0x1a28 ; PI_Iq_current + 62
        0x00001a20:    4299        .B      CMP      r1,r3
        0x00001a22:    da04        ..      BGE      0x1a2e ; PI_Iq_current + 68
        0x00001a24:    b200        ..      SXTH     r0,r0
        0x00001a26:    bdb0        ..      POP      {r4,r5,r7,pc}
        0x00001a28:    4610        .F      MOV      r0,r2
        0x00001a2a:    4299        .B      CMP      r1,r3
        0x00001a2c:    dbfa        ..      BLT      0x1a24 ; PI_Iq_current + 58
        0x00001a2e:    4618        .F      MOV      r0,r3
        0x00001a30:    b200        ..      SXTH     r0,r0
        0x00001a32:    bdb0        ..      POP      {r4,r5,r7,pc}
    PI_speed
        0x00001a34:    b5b0        ..      PUSH     {r4,r5,r7,lr}
        0x00001a36:    2336        6#      MOVS     r3,#0x36
        0x00001a38:    5ec4        .^      LDRSH    r4,[r0,r3]
        0x00001a3a:    600c        .`      STR      r4,[r1,#0]
        0x00001a3c:    68cb        .h      LDR      r3,[r1,#0xc]
        0x00001a3e:    4363        cC      MULS     r3,r4,r3
        0x00001a40:    684d        Mh      LDR      r5,[r1,#4]
        0x00001a42:    18ed        ..      ADDS     r5,r5,r3
        0x00001a44:    604d        M`      STR      r5,[r1,#4]
        0x00001a46:    2388        .#      MOVS     r3,#0x88
        0x00001a48:    58c3        .X      LDR      r3,[r0,r3]
        0x00001a4a:    3088        .0      ADDS     r0,r0,#0x88
        0x00001a4c:    6840        @h      LDR      r0,[r0,#4]
        0x00001a4e:    4285        .B      CMP      r5,r0
        0x00001a50:    da02        ..      BGE      0x1a58 ; PI_speed + 36
        0x00001a52:    4240        @B      RSBS     r0,r0,#0
        0x00001a54:    4285        .B      CMP      r5,r0
        0x00001a56:    dc00        ..      BGT      0x1a5a ; PI_speed + 38
        0x00001a58:    6048        H`      STR      r0,[r1,#4]
        0x00001a5a:    6848        Hh      LDR      r0,[r1,#4]
        0x00001a5c:    6889        .h      LDR      r1,[r1,#8]
        0x00001a5e:    434c        LC      MULS     r4,r1,r4
        0x00001a60:    1820         .      ADDS     r0,r4,r0
        0x00001a62:    13c0        ..      ASRS     r0,r0,#15
        0x00001a64:    1881        ..      ADDS     r1,r0,r2
        0x00001a66:    b21a        ..      SXTH     r2,r3
        0x00001a68:    4254        TB      RSBS     r4,r2,#0
        0x00001a6a:    42a1        .B      CMP      r1,r4
        0x00001a6c:    4608        .F      MOV      r0,r1
        0x00001a6e:    dd03        ..      BLE      0x1a78 ; PI_speed + 68
        0x00001a70:    4291        .B      CMP      r1,r2
        0x00001a72:    da04        ..      BGE      0x1a7e ; PI_speed + 74
        0x00001a74:    b200        ..      SXTH     r0,r0
        0x00001a76:    bdb0        ..      POP      {r4,r5,r7,pc}
        0x00001a78:    4620         F      MOV      r0,r4
        0x00001a7a:    4291        .B      CMP      r1,r2
        0x00001a7c:    dbfa        ..      BLT      0x1a74 ; PI_speed + 64
        0x00001a7e:    4618        .F      MOV      r0,r3
        0x00001a80:    b200        ..      SXTH     r0,r0
        0x00001a82:    bdb0        ..      POP      {r4,r5,r7,pc}
    Refresh
        0x00001a84:    b5f0        ..      PUSH     {r4-r7,lr}
        0x00001a86:    b082        ..      SUB      sp,sp,#8
        0x00001a88:    9101        ..      STR      r1,[sp,#4]
        0x00001a8a:    9000        ..      STR      r0,[sp,#0]
        0x00001a8c:    2a00        .*      CMP      r2,#0
        0x00001a8e:    d02b        +.      BEQ      0x1ae8 ; Refresh + 100
        0x00001a90:    2300        .#      MOVS     r3,#0
        0x00001a92:    4c1b        .L      LDR      r4,[pc,#108] ; [0x1b00] = 0x4027003c
        0x00001a94:    481b        .H      LDR      r0,[pc,#108] ; [0x1b04] = 0x20000190
        0x00001a96:    6826        &h      LDR      r6,[r4,#0]
        0x00001a98:    05f6        ..      LSLS     r6,r6,#23
        0x00001a9a:    d5fc        ..      BPL      0x1a96 ; Refresh + 18
        0x00001a9c:    264c        L&      MOVS     r6,#0x4c
        0x00001a9e:    435e        ^C      MULS     r6,r3,r6
        0x00001aa0:    9900        ..      LDR      r1,[sp,#0]
        0x00001aa2:    198e        ..      ADDS     r6,r1,r6
        0x00001aa4:    273b        ;'      MOVS     r7,#0x3b
        0x00001aa6:    5df7        .]      LDRB     r7,[r6,r7]
        0x00001aa8:    6b75        uk      LDR      r5,[r6,#0x34]
        0x00001aaa:    78ed        .x      LDRB     r5,[r5,#3]
        0x00001aac:    403d        =@      ANDS     r5,r5,r7
        0x00001aae:    009f        ..      LSLS     r7,r3,#2
        0x00001ab0:    55c5        .U      STRB     r5,[r0,r7]
        0x00001ab2:    253a        :%      MOVS     r5,#0x3a
        0x00001ab4:    5d75        u]      LDRB     r5,[r6,r5]
        0x00001ab6:    6b71        qk      LDR      r1,[r6,#0x34]
        0x00001ab8:    7889        .x      LDRB     r1,[r1,#2]
        0x00001aba:    4029        )@      ANDS     r1,r1,r5
        0x00001abc:    19c5        ..      ADDS     r5,r0,r7
        0x00001abe:    7069        ip      STRB     r1,[r5,#1]
        0x00001ac0:    2139        9!      MOVS     r1,#0x39
        0x00001ac2:    5c71        q\      LDRB     r1,[r6,r1]
        0x00001ac4:    6b77        wk      LDR      r7,[r6,#0x34]
        0x00001ac6:    787f        .x      LDRB     r7,[r7,#1]
        0x00001ac8:    400f        .@      ANDS     r7,r7,r1
        0x00001aca:    70af        .p      STRB     r7,[r5,#2]
        0x00001acc:    2138        8!      MOVS     r1,#0x38
        0x00001ace:    5c71        q\      LDRB     r1,[r6,r1]
        0x00001ad0:    6b76        vk      LDR      r6,[r6,#0x34]
        0x00001ad2:    7836        6x      LDRB     r6,[r6,#0]
        0x00001ad4:    400e        .@      ANDS     r6,r6,r1
        0x00001ad6:    70ee        .p      STRB     r6,[r5,#3]
        0x00001ad8:    00d9        ..      LSLS     r1,r3,#3
        0x00001ada:    9d01        ..      LDR      r5,[sp,#4]
        0x00001adc:    1869        i.      ADDS     r1,r5,r1
        0x00001ade:    2500        .%      MOVS     r5,#0
        0x00001ae0:    710d        .q      STRB     r5,[r1,#4]
        0x00001ae2:    1c5b        [.      ADDS     r3,r3,#1
        0x00001ae4:    4293        .B      CMP      r3,r2
        0x00001ae6:    d1d6        ..      BNE      0x1a96 ; Refresh + 18
        0x00001ae8:    0090        ..      LSLS     r0,r2,#2
        0x00001aea:    b2c1        ..      UXTB     r1,r0
        0x00001aec:    4a06        .J      LDR      r2,[pc,#24] ; [0x1b08] = 0x50008020
        0x00001aee:    60d1        .`      STR      r1,[r2,#0xc]
        0x00001af0:    4906        .I      LDR      r1,[pc,#24] ; [0x1b0c] = 0x200001f5
        0x00001af2:    7008        .p      STRB     r0,[r1,#0]
        0x00001af4:    6810        .h      LDR      r0,[r2,#0]
        0x00001af6:    2101        .!      MOVS     r1,#1
        0x00001af8:    4301        .C      ORRS     r1,r1,r0
        0x00001afa:    6011        .`      STR      r1,[r2,#0]
        0x00001afc:    b002        ..      ADD      sp,sp,#8
        0x00001afe:    bdf0        ..      POP      {r4-r7,pc}
    $d
    __arm_cp.16_0
        0x00001b00:    4027003c    <.'@    DCD    1076297788
    __arm_cp.16_1
        0x00001b04:    20000190    ...     DCD    536871312
    __arm_cp.16_2
        0x00001b08:    50008020     ..P    DCD    1342210080
    __arm_cp.16_3
        0x00001b0c:    200001f5    ...     DCD    536871413
    $t
    Request_decode
        0x00001b10:    b5f0        ..      PUSH     {r4-r7,lr}
        0x00001b12:    b081        ..      SUB      sp,sp,#4
        0x00001b14:    4937        7I      LDR      r1,[pc,#220] ; [0x1bf4] = 0x200001f8
        0x00001b16:    7802        .x      LDRB     r2,[r0,#0]
        0x00001b18:    2a30        0*      CMP      r2,#0x30
        0x00001b1a:    d107        ..      BNE      0x1b2c ; Request_decode + 28
        0x00001b1c:    780b        .x      LDRB     r3,[r1,#0]
        0x00001b1e:    2b00        .+      CMP      r3,#0
        0x00001b20:    d104        ..      BNE      0x1b2c ; Request_decode + 28
        0x00001b22:    4835        5H      LDR      r0,[pc,#212] ; [0x1bf8] = 0x200001f7
        0x00001b24:    2101        .!      MOVS     r1,#1
        0x00001b26:    7001        .p      STRB     r1,[r0,#0]
        0x00001b28:    b001        ..      ADD      sp,sp,#4
        0x00001b2a:    bdf0        ..      POP      {r4-r7,pc}
        0x00001b2c:    3a31        1:      SUBS     r2,r2,#0x31
        0x00001b2e:    2a57        W*      CMP      r2,#0x57
        0x00001b30:    d900        ..      BLS      0x1b34 ; Request_decode + 36
        0x00001b32:    e0f4        ..      B        0x1d1e ; 0x1d1e
        0x00001b34:    0052        R.      LSLS     r2,r2,#1
        0x00001b36:    46c0        .F      MOV      r8,r8
        0x00001b38:    447a        zD      ADD      r2,r2,pc
        0x00001b3a:    8892        ..      LDRH     r2,[r2,#4]
        0x00001b3c:    0052        R.      LSLS     r2,r2,#1
        0x00001b3e:    4497        .D      ADD      pc,pc,r2
    $d
        0x00001b40:    01690057    W.i.    DCD    23658583
        0x00001b44:    014400cb    ..D.    DCD    21233867
        0x00001b48:    011b00d9    ....    DCD    18546905
        0x00001b4c:    00ee016b    k...    DCD    15597931
        0x00001b50:    00ee00ee    ....    DCD    15597806
        0x00001b54:    00ee00ee    ....    DCD    15597806
        0x00001b58:    00ee00ee    ....    DCD    15597806
        0x00001b5c:    016d00ee    ..m.    DCD    23920878
        0x00001b60:    01ab01e7    ....    DCD    27984359
        0x00001b64:    00ee00ee    ....    DCD    15597806
        0x00001b68:    00ee00ee    ....    DCD    15597806
        0x00001b6c:    00ee00ee    ....    DCD    15597806
        0x00001b70:    00ee00ee    ....    DCD    15597806
        0x00001b74:    00ee00ee    ....    DCD    15597806
        0x00001b78:    00ee00ee    ....    DCD    15597806
        0x00001b7c:    00b800ee    ....    DCD    12058862
        0x00001b80:    00f00122    "...    DCD    15728930
        0x00001b84:    0174009c    ..t.    DCD    24379548
        0x00001b88:    00ee0196    ....    DCD    15597974
        0x00001b8c:    00ee00ee    ....    DCD    15597806
        0x00001b90:    00ee00ee    ....    DCD    15597806
        0x00001b94:    00ee00ee    ....    DCD    15597806
        0x00001b98:    00ee00ee    ....    DCD    15597806
        0x00001b9c:    01fc00ee    ....    DCD    33292526
        0x00001ba0:    005f01f1    .._.    DCD    6226417
        0x00001ba4:    0201010d    ....    DCD    33620237
        0x00001ba8:    00ee00ee    ....    DCD    15597806
        0x00001bac:    00ee00ee    ....    DCD    15597806
        0x00001bb0:    00ee00ee    ....    DCD    15597806
        0x00001bb4:    00ee00ee    ....    DCD    15597806
        0x00001bb8:    00ee00ee    ....    DCD    15597806
        0x00001bbc:    007f00ee    ....    DCD    8323310
        0x00001bc0:    00ee00ee    ....    DCD    15597806
        0x00001bc4:    00ee00ee    ....    DCD    15597806
        0x00001bc8:    00ee00ee    ....    DCD    15597806
        0x00001bcc:    00ee00ee    ....    DCD    15597806
        0x00001bd0:    00ee00ee    ....    DCD    15597806
        0x00001bd4:    00ee00ee    ....    DCD    15597806
        0x00001bd8:    00ee00ee    ....    DCD    15597806
        0x00001bdc:    00ee00ee    ....    DCD    15597806
        0x00001be0:    00ee00ee    ....    DCD    15597806
        0x00001be4:    00ee00ee    ....    DCD    15597806
        0x00001be8:    00ee00ee    ....    DCD    15597806
        0x00001bec:    00df00ee    ....    DCD    14614766
    $t
        0x00001bf0:    4802        .H      LDR      r0,[pc,#8] ; [0x1bfc] = 0x200001f6
        0x00001bf2:    e797        ..      B        0x1b24 ; Request_decode + 20
    $d
    __arm_cp.28_31
        0x00001bf4:    200001f8    ...     DCD    536871416
        0x00001bf8:    200001f7    ...     DCD    536871415
    __arm_cp.28_33
        0x00001bfc:    200001f6    ...     DCD    536871414
    $t
        0x00001c00:    7842        Bx      LDRB     r2,[r0,#1]
        0x00001c02:    2001        .       MOVS     r0,#1
        0x00001c04:    0201        ..      LSLS     r1,r0,#8
        0x00001c06:    4bf6        .K      LDR      r3,[pc,#984] ; [0x1fe0] = 0x4027003c
        0x00001c08:    681c        .h      LDR      r4,[r3,#0]
        0x00001c0a:    420c        .B      TST      r4,r1
        0x00001c0c:    d0fc        ..      BEQ      0x1c08 ; 0x1c08
        0x00001c0e:    49f5        .I      LDR      r1,[pc,#980] ; [0x1fe4] = 0x20000190
        0x00001c10:    2362        b#      MOVS     r3,#0x62
        0x00001c12:    700b        .p      STRB     r3,[r1,#0]
        0x00001c14:    2348        H#      MOVS     r3,#0x48
        0x00001c16:    4353        SC      MULS     r3,r2,r3
        0x00001c18:    4afc        .J      LDR      r2,[pc,#1008] ; [0x200c] = 0x3890
        0x00001c1a:    18d2        ..      ADDS     r2,r2,r3
        0x00001c1c:    2338        8#      MOVS     r3,#0x38
        0x00001c1e:    5cd3        .\      LDRB     r3,[r2,r3]
        0x00001c20:    714b        Kq      STRB     r3,[r1,#5]
        0x00001c22:    2339        9#      MOVS     r3,#0x39
        0x00001c24:    5cd3        .\      LDRB     r3,[r2,r3]
        0x00001c26:    710b        .q      STRB     r3,[r1,#4]
        0x00001c28:    233a        :#      MOVS     r3,#0x3a
        0x00001c2a:    5cd3        .\      LDRB     r3,[r2,r3]
        0x00001c2c:    70cb        .p      STRB     r3,[r1,#3]
        0x00001c2e:    233b        ;#      MOVS     r3,#0x3b
        0x00001c30:    5cd3        .\      LDRB     r3,[r2,r3]
        0x00001c32:    708b        .p      STRB     r3,[r1,#2]
        0x00001c34:    2344        D#      MOVS     r3,#0x44
        0x00001c36:    5cd2        .\      LDRB     r2,[r2,r3]
        0x00001c38:    704a        Jp      STRB     r2,[r1,#1]
        0x00001c3a:    49f8        .I      LDR      r1,[pc,#992] ; [0x201c] = 0x50008020
        0x00001c3c:    2206        ."      MOVS     r2,#6
        0x00001c3e:    e1b8        ..      B        0x1fb2 ; 0x1fb2
        0x00001c40:    48f3        .H      LDR      r0,[pc,#972] ; [0x2010] = 0x40040008
        0x00001c42:    6801        .h      LDR      r1,[r0,#0]
        0x00001c44:    4afc        .J      LDR      r2,[pc,#1008] ; [0x2038] = 0x20000178
        0x00001c46:    6011        .`      STR      r1,[r2,#0]
        0x00001c48:    6801        .h      LDR      r1,[r0,#0]
        0x00001c4a:    223f        ?"      MOVS     r2,#0x3f
        0x00001c4c:    4391        .C      BICS     r1,r1,r2
        0x00001c4e:    6001        .`      STR      r1,[r0,#0]
        0x00001c50:    48fa        .H      LDR      r0,[pc,#1000] ; [0x203c] = 0xe000e100
        0x00001c52:    6800        .h      LDR      r0,[r0,#0]
        0x00001c54:    49fa        .I      LDR      r1,[pc,#1000] ; [0x2040] = 0x20000174
        0x00001c56:    6008        .`      STR      r0,[r1,#0]
        0x00001c58:    48ee        .H      LDR      r0,[pc,#952] ; [0x2014] = 0xe000e180
        0x00001c5a:    49ef        .I      LDR      r1,[pc,#956] ; [0x2018] = 0xfff7ffff
        0x00001c5c:    6001        .`      STR      r1,[r0,#0]
        0x00001c5e:    48fb        .H      LDR      r0,[pc,#1004] ; [0x204c] = 0x20000190
        0x00001c60:    2170        p!      MOVS     r1,#0x70
        0x00001c62:    7001        .p      STRB     r1,[r0,#0]
        0x00001c64:    48fa        .H      LDR      r0,[pc,#1000] ; [0x2050] = 0x50008020
        0x00001c66:    2102        .!      MOVS     r1,#2
        0x00001c68:    60c1        .`      STR      r1,[r0,#0xc]
        0x00001c6a:    4afc        .J      LDR      r2,[pc,#1008] ; [0x205c] = 0x200001f5
        0x00001c6c:    7011        .p      STRB     r1,[r2,#0]
        0x00001c6e:    6801        .h      LDR      r1,[r0,#0]
        0x00001c70:    2201        ."      MOVS     r2,#1
        0x00001c72:    430a        .C      ORRS     r2,r2,r1
        0x00001c74:    6002        .`      STR      r2,[r0,#0]
        0x00001c76:    b001        ..      ADD      sp,sp,#4
        0x00001c78:    bdf0        ..      POP      {r4-r7,pc}
        0x00001c7a:    7842        Bx      LDRB     r2,[r0,#1]
        0x00001c7c:    2001        .       MOVS     r0,#1
        0x00001c7e:    0201        ..      LSLS     r1,r0,#8
        0x00001c80:    4bf9        .K      LDR      r3,[pc,#996] ; [0x2068] = 0x4027003c
        0x00001c82:    681c        .h      LDR      r4,[r3,#0]
        0x00001c84:    420c        .B      TST      r4,r1
        0x00001c86:    d0fc        ..      BEQ      0x1c82 ; 0x1c82
        0x00001c88:    49f0        .I      LDR      r1,[pc,#960] ; [0x204c] = 0x20000190
        0x00001c8a:    2a05        .*      CMP      r2,#5
        0x00001c8c:    d900        ..      BLS      0x1c90 ; 0x1c90
        0x00001c8e:    e19a        ..      B        0x1fc6 ; 0x1fc6
        0x00001c90:    2353        S#      MOVS     r3,#0x53
        0x00001c92:    700b        .p      STRB     r3,[r1,#0]
        0x00001c94:    2348        H#      MOVS     r3,#0x48
        0x00001c96:    4353        SC      MULS     r3,r2,r3
        0x00001c98:    4af5        .J      LDR      r2,[pc,#980] ; [0x2070] = 0x3ad0
        0x00001c9a:    18d3        ..      ADDS     r3,r2,r3
        0x00001c9c:    2200        ."      MOVS     r2,#0
        0x00001c9e:    188c        ..      ADDS     r4,r1,r2
        0x00001ca0:    5c9d        .\      LDRB     r5,[r3,r2]
        0x00001ca2:    7065        ep      STRB     r5,[r4,#1]
        0x00001ca4:    2d0a        .-      CMP      r5,#0xa
        0x00001ca6:    d100        ..      BNE      0x1caa ; 0x1caa
        0x00001ca8:    e1ba        ..      B        0x2020 ; 0x2020
        0x00001caa:    1c52        R.      ADDS     r2,r2,#1
        0x00001cac:    2a32        2*      CMP      r2,#0x32
        0x00001cae:    d1f6        ..      BNE      0x1c9e ; 0x1c9e
        0x00001cb0:    e1b9        ..      B        0x2026 ; 0x2026
        0x00001cb2:    7840        @x      LDRB     r0,[r0,#1]
        0x00001cb4:    2401        .$      MOVS     r4,#1
        0x00001cb6:    0221        !.      LSLS     r1,r4,#8
        0x00001cb8:    4aeb        .J      LDR      r2,[pc,#940] ; [0x2068] = 0x4027003c
        0x00001cba:    6813        .h      LDR      r3,[r2,#0]
        0x00001cbc:    420b        .B      TST      r3,r1
        0x00001cbe:    d0fc        ..      BEQ      0x1cba ; 0x1cba
        0x00001cc0:    4de3        .M      LDR      r5,[pc,#908] ; [0x2050] = 0x50008020
        0x00001cc2:    2800        .(      CMP      r0,#0
        0x00001cc4:    d100        ..      BNE      0x1cc8 ; 0x1cc8
        0x00001cc6:    e18f        ..      B        0x1fe8 ; 0x1fe8
        0x00001cc8:    48e0        .H      LDR      r0,[pc,#896] ; [0x204c] = 0x20000190
        0x00001cca:    210a        .!      MOVS     r1,#0xa
        0x00001ccc:    7041        Ap      STRB     r1,[r0,#1]
        0x00001cce:    21cc        .!      MOVS     r1,#0xcc
        0x00001cd0:    7001        .p      STRB     r1,[r0,#0]
        0x00001cd2:    2002        .       MOVS     r0,#2
        0x00001cd4:    60e8        .`      STR      r0,[r5,#0xc]
        0x00001cd6:    e193        ..      B        0x2000 ; 0x2000
        0x00001cd8:    4af2        .J      LDR      r2,[pc,#968] ; [0x20a4] = 0x200001f7
        0x00001cda:    2300        .#      MOVS     r3,#0
        0x00001cdc:    7013        .p      STRB     r3,[r2,#0]
        0x00001cde:    700b        .p      STRB     r3,[r1,#0]
        0x00001ce0:    49f1        .I      LDR      r1,[pc,#964] ; [0x20a8] = 0x200000b0
        0x00001ce2:    800b        ..      STRH     r3,[r1,#0]
        0x00001ce4:    7901        .y      LDRB     r1,[r0,#4]
        0x00001ce6:    78c0        .x      LDRB     r0,[r0,#3]
        0x00001ce8:    0200        ..      LSLS     r0,r0,#8
        0x00001cea:    1840        @.      ADDS     r0,r0,r1
        0x00001cec:    49ef        .I      LDR      r1,[pc,#956] ; [0x20ac] = 0x20000060
        0x00001cee:    8008        ..      STRH     r0,[r1,#0]
        0x00001cf0:    b001        ..      ADD      sp,sp,#4
        0x00001cf2:    bdf0        ..      POP      {r4-r7,pc}
        0x00001cf4:    7941        Ay      LDRB     r1,[r0,#5]
        0x00001cf6:    7840        @x      LDRB     r0,[r0,#1]
        0x00001cf8:    00c0        ..      LSLS     r0,r0,#3
        0x00001cfa:    4ae8        .J      LDR      r2,[pc,#928] ; [0x209c] = 0x20000188
        0x00001cfc:    5411        .T      STRB     r1,[r2,r0]
        0x00001cfe:    e084        ..      B        0x1e0a ; 0x1e0a
        0x00001d00:    48d0        .H      LDR      r0,[pc,#832] ; [0x2044] = 0x50000100
        0x00001d02:    2159        Y!      MOVS     r1,#0x59
        0x00001d04:    6001        .`      STR      r1,[r0,#0]
        0x00001d06:    2116        .!      MOVS     r1,#0x16
        0x00001d08:    6001        .`      STR      r1,[r0,#0]
        0x00001d0a:    2188        .!      MOVS     r1,#0x88
        0x00001d0c:    6001        .`      STR      r1,[r0,#0]
        0x00001d0e:    6801        .h      LDR      r1,[r0,#0]
        0x00001d10:    2900        .)      CMP      r1,#0
        0x00001d12:    d0f6        ..      BEQ      0x1d02 ; 0x1d02
        0x00001d14:    49cc        .I      LDR      r1,[pc,#816] ; [0x2048] = 0x50000008
        0x00001d16:    2201        ."      MOVS     r2,#1
        0x00001d18:    600a        .`      STR      r2,[r1,#0]
        0x00001d1a:    2100        .!      MOVS     r1,#0
        0x00001d1c:    6001        .`      STR      r1,[r0,#0]
        0x00001d1e:    b001        ..      ADD      sp,sp,#4
        0x00001d20:    bdf0        ..      POP      {r4-r7,pc}
        0x00001d22:    7843        Cx      LDRB     r3,[r0,#1]
        0x00001d24:    2001        .       MOVS     r0,#1
        0x00001d26:    0201        ..      LSLS     r1,r0,#8
        0x00001d28:    4acf        .J      LDR      r2,[pc,#828] ; [0x2068] = 0x4027003c
        0x00001d2a:    6814        .h      LDR      r4,[r2,#0]
        0x00001d2c:    420c        .B      TST      r4,r1
        0x00001d2e:    d0fc        ..      BEQ      0x1d2a ; 0x1d2a
        0x00001d30:    49c7        .I      LDR      r1,[pc,#796] ; [0x2050] = 0x50008020
        0x00001d32:    2b03        .+      CMP      r3,#3
        0x00001d34:    d900        ..      BLS      0x1d38 ; 0x1d38
        0x00001d36:    e094        ..      B        0x1e62 ; 0x1e62
        0x00001d38:    4ac4        .J      LDR      r2,[pc,#784] ; [0x204c] = 0x20000190
        0x00001d3a:    2452        R$      MOVS     r4,#0x52
        0x00001d3c:    7014        .p      STRB     r4,[r2,#0]
        0x00001d3e:    2448        H$      MOVS     r4,#0x48
        0x00001d40:    435c        \C      MULS     r4,r3,r4
        0x00001d42:    4bcc        .K      LDR      r3,[pc,#816] ; [0x2074] = 0x3890
        0x00001d44:    191c        ..      ADDS     r4,r3,r4
        0x00001d46:    2300        .#      MOVS     r3,#0
        0x00001d48:    18d5        ..      ADDS     r5,r2,r3
        0x00001d4a:    5ce6        .\      LDRB     r6,[r4,r3]
        0x00001d4c:    706e        np      STRB     r6,[r5,#1]
        0x00001d4e:    2e0a        ..      CMP      r6,#0xa
        0x00001d50:    d100        ..      BNE      0x1d54 ; 0x1d54
        0x00001d52:    e132        2.      B        0x1fba ; 0x1fba
        0x00001d54:    1c5b        [.      ADDS     r3,r3,#1
        0x00001d56:    2b32        2+      CMP      r3,#0x32
        0x00001d58:    d1f6        ..      BNE      0x1d48 ; 0x1d48
        0x00001d5a:    e131        1.      B        0x1fc0 ; 0x1fc0
        0x00001d5c:    7842        Bx      LDRB     r2,[r0,#1]
        0x00001d5e:    2001        .       MOVS     r0,#1
        0x00001d60:    0201        ..      LSLS     r1,r0,#8
        0x00001d62:    4bc1        .K      LDR      r3,[pc,#772] ; [0x2068] = 0x4027003c
        0x00001d64:    681c        .h      LDR      r4,[r3,#0]
        0x00001d66:    420c        .B      TST      r4,r1
        0x00001d68:    d0fc        ..      BEQ      0x1d64 ; 0x1d64
        0x00001d6a:    49b8        .I      LDR      r1,[pc,#736] ; [0x204c] = 0x20000190
        0x00001d6c:    2363        c#      MOVS     r3,#0x63
        0x00001d6e:    700b        .p      STRB     r3,[r1,#0]
        0x00001d70:    2348        H#      MOVS     r3,#0x48
        0x00001d72:    4353        SC      MULS     r3,r2,r3
        0x00001d74:    4abe        .J      LDR      r2,[pc,#760] ; [0x2070] = 0x3ad0
        0x00001d76:    e0f2        ..      B        0x1f5e ; 0x1f5e
        0x00001d78:    49c7        .I      LDR      r1,[pc,#796] ; [0x2098] = 0x20000183
        0x00001d7a:    2201        ."      MOVS     r2,#1
        0x00001d7c:    700a        .p      STRB     r2,[r1,#0]
        0x00001d7e:    7840        @x      LDRB     r0,[r0,#1]
        0x00001d80:    7048        Hp      STRB     r0,[r1,#1]
        0x00001d82:    b001        ..      ADD      sp,sp,#4
        0x00001d84:    bdf0        ..      POP      {r4-r7,pc}
        0x00001d86:    7881        .x      LDRB     r1,[r0,#2]
        0x00001d88:    4abd        .J      LDR      r2,[pc,#756] ; [0x2080] = 0x20000018
        0x00001d8a:    5c52        R\      LDRB     r2,[r2,r1]
        0x00001d8c:    0089        ..      LSLS     r1,r1,#2
        0x00001d8e:    4bbb        .K      LDR      r3,[pc,#748] ; [0x207c] = 0x20000008
        0x00001d90:    585b        [X      LDR      r3,[r3,r1]
        0x00001d92:    7844        Dx      LDRB     r4,[r0,#1]
        0x00001d94:    2001        .       MOVS     r0,#1
        0x00001d96:    0201        ..      LSLS     r1,r0,#8
        0x00001d98:    4db3        .M      LDR      r5,[pc,#716] ; [0x2068] = 0x4027003c
        0x00001d9a:    682e        .h      LDR      r6,[r5,#0]
        0x00001d9c:    420e        .B      TST      r6,r1
        0x00001d9e:    d0fc        ..      BEQ      0x1d9a ; 0x1d9a
        0x00001da0:    49ab        .I      LDR      r1,[pc,#684] ; [0x2050] = 0x50008020
        0x00001da2:    4294        .B      CMP      r4,r2
        0x00001da4:    d25d        ].      BCS      0x1e62 ; 0x1e62
        0x00001da6:    4aa9        .J      LDR      r2,[pc,#676] ; [0x204c] = 0x20000190
        0x00001da8:    2551        Q%      MOVS     r5,#0x51
        0x00001daa:    7015        .p      STRB     r5,[r2,#0]
        0x00001dac:    254c        L%      MOVS     r5,#0x4c
        0x00001dae:    4365        eC      MULS     r5,r4,r5
        0x00001db0:    195c        \.      ADDS     r4,r3,r5
        0x00001db2:    2300        .#      MOVS     r3,#0
        0x00001db4:    5ce5        .\      LDRB     r5,[r4,r3]
        0x00001db6:    18d6        ..      ADDS     r6,r2,r3
        0x00001db8:    7075        up      STRB     r5,[r6,#1]
        0x00001dba:    5ce5        .\      LDRB     r5,[r4,r3]
        0x00001dbc:    2d0a        .-      CMP      r5,#0xa
        0x00001dbe:    d100        ..      BNE      0x1dc2 ; 0x1dc2
        0x00001dc0:    e0fb        ..      B        0x1fba ; 0x1fba
        0x00001dc2:    1c5b        [.      ADDS     r3,r3,#1
        0x00001dc4:    2b32        2+      CMP      r3,#0x32
        0x00001dc6:    d1f5        ..      BNE      0x1db4 ; 0x1db4
        0x00001dc8:    e0fa        ..      B        0x1fc0 ; 0x1fc0
        0x00001dca:    7841        Ax      LDRB     r1,[r0,#1]
        0x00001dcc:    224c        L"      MOVS     r2,#0x4c
        0x00001dce:    434a        JC      MULS     r2,r1,r2
        0x00001dd0:    7883        .x      LDRB     r3,[r0,#2]
        0x00001dd2:    009c        ..      LSLS     r4,r3,#2
        0x00001dd4:    4ba9        .K      LDR      r3,[pc,#676] ; [0x207c] = 0x20000008
        0x00001dd6:    591b        .Y      LDR      r3,[r3,r4]
        0x00001dd8:    189a        ..      ADDS     r2,r3,r2
        0x00001dda:    6b93        .k      LDR      r3,[r2,#0x38]
        0x00001ddc:    4aa6        .J      LDR      r2,[pc,#664] ; [0x2078] = 0x2000001c
        0x00001dde:    5912        .Y      LDR      r2,[r2,r4]
        0x00001de0:    4caf        .L      LDR      r4,[pc,#700] ; [0x20a0] = 0xffff
        0x00001de2:    42a3        .B      CMP      r3,r4
        0x00001de4:    d009        ..      BEQ      0x1dfa ; 0x1dfa
        0x00001de6:    2bff        .+      CMP      r3,#0xff
        0x00001de8:    d00b        ..      BEQ      0x1e02 ; 0x1e02
        0x00001dea:    1c5b        [.      ADDS     r3,r3,#1
        0x00001dec:    d10c        ..      BNE      0x1e08 ; 0x1e08
        0x00001dee:    00cb        ..      LSLS     r3,r1,#3
        0x00001df0:    18d3        ..      ADDS     r3,r2,r3
        0x00001df2:    78c4        .x      LDRB     r4,[r0,#3]
        0x00001df4:    70dc        .p      STRB     r4,[r3,#3]
        0x00001df6:    7904        .y      LDRB     r4,[r0,#4]
        0x00001df8:    709c        .p      STRB     r4,[r3,#2]
        0x00001dfa:    00cb        ..      LSLS     r3,r1,#3
        0x00001dfc:    18d3        ..      ADDS     r3,r2,r3
        0x00001dfe:    7944        Dy      LDRB     r4,[r0,#5]
        0x00001e00:    705c        \p      STRB     r4,[r3,#1]
        0x00001e02:    7980        .y      LDRB     r0,[r0,#6]
        0x00001e04:    00cb        ..      LSLS     r3,r1,#3
        0x00001e06:    54d0        .T      STRB     r0,[r2,r3]
        0x00001e08:    00c8        ..      LSLS     r0,r1,#3
        0x00001e0a:    1810        ..      ADDS     r0,r2,r0
        0x00001e0c:    2101        .!      MOVS     r1,#1
        0x00001e0e:    7101        .q      STRB     r1,[r0,#4]
        0x00001e10:    b001        ..      ADD      sp,sp,#4
        0x00001e12:    bdf0        ..      POP      {r4-r7,pc}
        0x00001e14:    48a6        .H      LDR      r0,[pc,#664] ; [0x20b0] = 0x200001f4
        0x00001e16:    e685        ..      B        0x1b24 ; Request_decode + 20
        0x00001e18:    489e        .H      LDR      r0,[pc,#632] ; [0x2094] = 0x20000185
        0x00001e1a:    e683        ..      B        0x1b24 ; Request_decode + 20
        0x00001e1c:    7840        @x      LDRB     r0,[r0,#1]
        0x00001e1e:    4998        .I      LDR      r1,[pc,#608] ; [0x2080] = 0x20000018
        0x00001e20:    5c09        .\      LDRB     r1,[r1,r0]
        0x00001e22:    f001f81d    ....    BL       read_data_flash_to_GUI ; 0x2e60
        0x00001e26:    b001        ..      ADD      sp,sp,#4
        0x00001e28:    bdf0        ..      POP      {r4-r7,pc}
        0x00001e2a:    7843        Cx      LDRB     r3,[r0,#1]
        0x00001e2c:    2001        .       MOVS     r0,#1
        0x00001e2e:    0201        ..      LSLS     r1,r0,#8
        0x00001e30:    4a8d        .J      LDR      r2,[pc,#564] ; [0x2068] = 0x4027003c
        0x00001e32:    6814        .h      LDR      r4,[r2,#0]
        0x00001e34:    420c        .B      TST      r4,r1
        0x00001e36:    d0fc        ..      BEQ      0x1e32 ; 0x1e32
        0x00001e38:    4985        .I      LDR      r1,[pc,#532] ; [0x2050] = 0x50008020
        0x00001e3a:    2b03        .+      CMP      r3,#3
        0x00001e3c:    d811        ..      BHI      0x1e62 ; 0x1e62
        0x00001e3e:    4a83        .J      LDR      r2,[pc,#524] ; [0x204c] = 0x20000190
        0x00001e40:    2454        T$      MOVS     r4,#0x54
        0x00001e42:    7014        .p      STRB     r4,[r2,#0]
        0x00001e44:    2448        H$      MOVS     r4,#0x48
        0x00001e46:    435c        \C      MULS     r4,r3,r4
        0x00001e48:    4b88        .K      LDR      r3,[pc,#544] ; [0x206c] = 0x39b0
        0x00001e4a:    191c        ..      ADDS     r4,r3,r4
        0x00001e4c:    2300        .#      MOVS     r3,#0
        0x00001e4e:    18d5        ..      ADDS     r5,r2,r3
        0x00001e50:    5ce6        .\      LDRB     r6,[r4,r3]
        0x00001e52:    706e        np      STRB     r6,[r5,#1]
        0x00001e54:    2e0a        ..      CMP      r6,#0xa
        0x00001e56:    d100        ..      BNE      0x1e5a ; 0x1e5a
        0x00001e58:    e0af        ..      B        0x1fba ; 0x1fba
        0x00001e5a:    1c5b        [.      ADDS     r3,r3,#1
        0x00001e5c:    2b32        2+      CMP      r3,#0x32
        0x00001e5e:    d1f6        ..      BNE      0x1e4e ; 0x1e4e
        0x00001e60:    e0ae        ..      B        0x1fc0 ; 0x1fc0
        0x00001e62:    4a7a        zJ      LDR      r2,[pc,#488] ; [0x204c] = 0x20000190
        0x00001e64:    230a        .#      MOVS     r3,#0xa
        0x00001e66:    7053        Sp      STRB     r3,[r2,#1]
        0x00001e68:    23cc        .#      MOVS     r3,#0xcc
        0x00001e6a:    7013        .p      STRB     r3,[r2,#0]
        0x00001e6c:    e0b0        ..      B        0x1fd0 ; 0x1fd0
        0x00001e6e:    4877        wH      LDR      r0,[pc,#476] ; [0x204c] = 0x20000190
        0x00001e70:    2155        U!      MOVS     r1,#0x55
        0x00001e72:    7001        .p      STRB     r1,[r0,#0]
        0x00001e74:    4876        vH      LDR      r0,[pc,#472] ; [0x2050] = 0x50008020
        0x00001e76:    2101        .!      MOVS     r1,#1
        0x00001e78:    60c1        .`      STR      r1,[r0,#0xc]
        0x00001e7a:    6802        .h      LDR      r2,[r0,#0]
        0x00001e7c:    430a        .C      ORRS     r2,r2,r1
        0x00001e7e:    6002        .`      STR      r2,[r0,#0]
        0x00001e80:    4874        tH      LDR      r0,[pc,#464] ; [0x2054] = 0x20000174
        0x00001e82:    6800        .h      LDR      r0,[r0,#0]
        0x00001e84:    4a74        tJ      LDR      r2,[pc,#464] ; [0x2058] = 0xe000e100
        0x00001e86:    6010        .`      STR      r0,[r2,#0]
        0x00001e88:    4874        tH      LDR      r0,[pc,#464] ; [0x205c] = 0x200001f5
        0x00001e8a:    7001        .p      STRB     r1,[r0,#0]
        0x00001e8c:    4874        tH      LDR      r0,[pc,#464] ; [0x2060] = 0x20000178
        0x00001e8e:    6800        .h      LDR      r0,[r0,#0]
        0x00001e90:    4974        tI      LDR      r1,[pc,#464] ; [0x2064] = 0x40040008
        0x00001e92:    6008        .`      STR      r0,[r1,#0]
        0x00001e94:    b001        ..      ADD      sp,sp,#4
        0x00001e96:    bdf0        ..      POP      {r4-r7,pc}
        0x00001e98:    4c72        rL      LDR      r4,[pc,#456] ; [0x2064] = 0x40040008
        0x00001e9a:    6820         h      LDR      r0,[r4,#0]
        0x00001e9c:    9000        ..      STR      r0,[sp,#0]
        0x00001e9e:    6820         h      LDR      r0,[r4,#0]
        0x00001ea0:    213f        ?!      MOVS     r1,#0x3f
        0x00001ea2:    4388        .C      BICS     r0,r0,r1
        0x00001ea4:    6020         `      STR      r0,[r4,#0]
        0x00001ea6:    486c        lH      LDR      r0,[pc,#432] ; [0x2058] = 0xe000e100
        0x00001ea8:    6800        .h      LDR      r0,[r0,#0]
        0x00001eaa:    496a        jI      LDR      r1,[pc,#424] ; [0x2054] = 0x20000174
        0x00001eac:    6008        .`      STR      r0,[r1,#0]
        0x00001eae:    4876        vH      LDR      r0,[pc,#472] ; [0x2088] = 0xe000e180
        0x00001eb0:    4976        vI      LDR      r1,[pc,#472] ; [0x208c] = 0xfff7ffff
        0x00001eb2:    6001        .`      STR      r1,[r0,#0]
        0x00001eb4:    4eb1        .N      LDR      r6,[pc,#708] ; [0x217c] = 0x50000100
        0x00001eb6:    2059        Y       MOVS     r0,#0x59
        0x00001eb8:    6030        0`      STR      r0,[r6,#0]
        0x00001eba:    2016        .       MOVS     r0,#0x16
        0x00001ebc:    6030        0`      STR      r0,[r6,#0]
        0x00001ebe:    2088        .       MOVS     r0,#0x88
        0x00001ec0:    6030        0`      STR      r0,[r6,#0]
        0x00001ec2:    6830        0h      LDR      r0,[r6,#0]
        0x00001ec4:    2800        .(      CMP      r0,#0
        0x00001ec6:    d0f6        ..      BEQ      0x1eb6 ; 0x1eb6
        0x00001ec8:    4f71        qO      LDR      r7,[pc,#452] ; [0x2090] = 0x5000c000
        0x00001eca:    6838        8h      LDR      r0,[r7,#0]
        0x00001ecc:    2508        .%      MOVS     r5,#8
        0x00001ece:    4328        (C      ORRS     r0,r0,r5
        0x00001ed0:    6038        8`      STR      r0,[r7,#0]
        0x00001ed2:    207f        .       MOVS     r0,#0x7f
        0x00001ed4:    0240        @.      LSLS     r0,r0,#9
        0x00001ed6:    f7fefde5    ....    BL       FMC_Erase ; 0xaa4
        0x00001eda:    6839        9h      LDR      r1,[r7,#0]
        0x00001edc:    43a9        .C      BICS     r1,r1,r5
        0x00001ede:    6039        9`      STR      r1,[r7,#0]
        0x00001ee0:    2100        .!      MOVS     r1,#0
        0x00001ee2:    6031        1`      STR      r1,[r6,#0]
        0x00001ee4:    b662        b.      CPSIE    i
        0x00001ee6:    2800        .(      CMP      r0,#0
        0x00001ee8:    d10a        ..      BNE      0x1f00 ; 0x1f00
        0x00001eea:    4858        XH      LDR      r0,[pc,#352] ; [0x204c] = 0x20000190
        0x00001eec:    2142        B!      MOVS     r1,#0x42
        0x00001eee:    7001        .p      STRB     r1,[r0,#0]
        0x00001ef0:    4857        WH      LDR      r0,[pc,#348] ; [0x2050] = 0x50008020
        0x00001ef2:    2101        .!      MOVS     r1,#1
        0x00001ef4:    60c1        .`      STR      r1,[r0,#0xc]
        0x00001ef6:    4a59        YJ      LDR      r2,[pc,#356] ; [0x205c] = 0x200001f5
        0x00001ef8:    7011        .p      STRB     r1,[r2,#0]
        0x00001efa:    6802        .h      LDR      r2,[r0,#0]
        0x00001efc:    430a        .C      ORRS     r2,r2,r1
        0x00001efe:    6002        .`      STR      r2,[r0,#0]
        0x00001f00:    4854        TH      LDR      r0,[pc,#336] ; [0x2054] = 0x20000174
        0x00001f02:    6800        .h      LDR      r0,[r0,#0]
        0x00001f04:    4954        TI      LDR      r1,[pc,#336] ; [0x2058] = 0xe000e100
        0x00001f06:    6008        .`      STR      r0,[r1,#0]
        0x00001f08:    9800        ..      LDR      r0,[sp,#0]
        0x00001f0a:    6020         `      STR      r0,[r4,#0]
        0x00001f0c:    b001        ..      ADD      sp,sp,#4
        0x00001f0e:    bdf0        ..      POP      {r4-r7,pc}
        0x00001f10:    7842        Bx      LDRB     r2,[r0,#1]
        0x00001f12:    485b        [H      LDR      r0,[pc,#364] ; [0x2080] = 0x20000018
        0x00001f14:    5c83        .\      LDRB     r3,[r0,r2]
        0x00001f16:    0090        ..      LSLS     r0,r2,#2
        0x00001f18:    4957        WI      LDR      r1,[pc,#348] ; [0x2078] = 0x2000001c
        0x00001f1a:    5809        .X      LDR      r1,[r1,r0]
        0x00001f1c:    f001f802    ....    BL       write_data_flash_from_GUI ; 0x2f24
        0x00001f20:    b001        ..      ADD      sp,sp,#4
        0x00001f22:    bdf0        ..      POP      {r4-r7,pc}
        0x00001f24:    7881        .x      LDRB     r1,[r0,#2]
        0x00001f26:    0089        ..      LSLS     r1,r1,#2
        0x00001f28:    4a53        SJ      LDR      r2,[pc,#332] ; [0x2078] = 0x2000001c
        0x00001f2a:    5852        RX      LDR      r2,[r2,r1]
        0x00001f2c:    4b53        SK      LDR      r3,[pc,#332] ; [0x207c] = 0x20000008
        0x00001f2e:    5859        YX      LDR      r1,[r3,r1]
        0x00001f30:    7840        @x      LDRB     r0,[r0,#1]
        0x00001f32:    f000fd5f    .._.    BL       initial_CMD ; 0x29f4
        0x00001f36:    b001        ..      ADD      sp,sp,#4
        0x00001f38:    bdf0        ..      POP      {r4-r7,pc}
        0x00001f3a:    7840        @x      LDRB     r0,[r0,#1]
        0x00001f3c:    f000fdbe    ....    BL       initial_SYS ; 0x2abc
        0x00001f40:    b001        ..      ADD      sp,sp,#4
        0x00001f42:    bdf0        ..      POP      {r4-r7,pc}
        0x00001f44:    7842        Bx      LDRB     r2,[r0,#1]
        0x00001f46:    2001        .       MOVS     r0,#1
        0x00001f48:    0201        ..      LSLS     r1,r0,#8
        0x00001f4a:    4b47        GK      LDR      r3,[pc,#284] ; [0x2068] = 0x4027003c
        0x00001f4c:    681c        .h      LDR      r4,[r3,#0]
        0x00001f4e:    420c        .B      TST      r4,r1
        0x00001f50:    d0fc        ..      BEQ      0x1f4c ; 0x1f4c
        0x00001f52:    493e        >I      LDR      r1,[pc,#248] ; [0x204c] = 0x20000190
        0x00001f54:    2364        d#      MOVS     r3,#0x64
        0x00001f56:    700b        .p      STRB     r3,[r1,#0]
        0x00001f58:    2348        H#      MOVS     r3,#0x48
        0x00001f5a:    4353        SC      MULS     r3,r2,r3
        0x00001f5c:    4a43        CJ      LDR      r2,[pc,#268] ; [0x206c] = 0x39b0
        0x00001f5e:    18d2        ..      ADDS     r2,r2,r3
        0x00001f60:    2344        D#      MOVS     r3,#0x44
        0x00001f62:    5cd3        .\      LDRB     r3,[r2,r3]
        0x00001f64:    734b        Ks      STRB     r3,[r1,#0xd]
        0x00001f66:    2340        @#      MOVS     r3,#0x40
        0x00001f68:    5cd3        .\      LDRB     r3,[r2,r3]
        0x00001f6a:    730b        .s      STRB     r3,[r1,#0xc]
        0x00001f6c:    2341        A#      MOVS     r3,#0x41
        0x00001f6e:    5cd3        .\      LDRB     r3,[r2,r3]
        0x00001f70:    72cb        .r      STRB     r3,[r1,#0xb]
        0x00001f72:    2342        B#      MOVS     r3,#0x42
        0x00001f74:    5cd3        .\      LDRB     r3,[r2,r3]
        0x00001f76:    728b        .r      STRB     r3,[r1,#0xa]
        0x00001f78:    2343        C#      MOVS     r3,#0x43
        0x00001f7a:    5cd3        .\      LDRB     r3,[r2,r3]
        0x00001f7c:    724b        Kr      STRB     r3,[r1,#9]
        0x00001f7e:    233c        <#      MOVS     r3,#0x3c
        0x00001f80:    5cd3        .\      LDRB     r3,[r2,r3]
        0x00001f82:    720b        .r      STRB     r3,[r1,#8]
        0x00001f84:    233d        =#      MOVS     r3,#0x3d
        0x00001f86:    5cd3        .\      LDRB     r3,[r2,r3]
        0x00001f88:    71cb        .q      STRB     r3,[r1,#7]
        0x00001f8a:    233e        >#      MOVS     r3,#0x3e
        0x00001f8c:    5cd3        .\      LDRB     r3,[r2,r3]
        0x00001f8e:    718b        .q      STRB     r3,[r1,#6]
        0x00001f90:    233f        ?#      MOVS     r3,#0x3f
        0x00001f92:    5cd3        .\      LDRB     r3,[r2,r3]
        0x00001f94:    714b        Kq      STRB     r3,[r1,#5]
        0x00001f96:    2338        8#      MOVS     r3,#0x38
        0x00001f98:    5cd3        .\      LDRB     r3,[r2,r3]
        0x00001f9a:    710b        .q      STRB     r3,[r1,#4]
        0x00001f9c:    2339        9#      MOVS     r3,#0x39
        0x00001f9e:    5cd3        .\      LDRB     r3,[r2,r3]
        0x00001fa0:    70cb        .p      STRB     r3,[r1,#3]
        0x00001fa2:    233a        :#      MOVS     r3,#0x3a
        0x00001fa4:    5cd3        .\      LDRB     r3,[r2,r3]
        0x00001fa6:    708b        .p      STRB     r3,[r1,#2]
        0x00001fa8:    233b        ;#      MOVS     r3,#0x3b
        0x00001faa:    5cd2        .\      LDRB     r2,[r2,r3]
        0x00001fac:    704a        Jp      STRB     r2,[r1,#1]
        0x00001fae:    4928        (I      LDR      r1,[pc,#160] ; [0x2050] = 0x50008020
        0x00001fb0:    220e        ."      MOVS     r2,#0xe
        0x00001fb2:    60ca        .`      STR      r2,[r1,#0xc]
        0x00001fb4:    4b29        )K      LDR      r3,[pc,#164] ; [0x205c] = 0x200001f5
        0x00001fb6:    701a        .p      STRB     r2,[r3,#0]
        0x00001fb8:    e00c        ..      B        0x1fd4 ; 0x1fd4
        0x00001fba:    1c9a        ..      ADDS     r2,r3,#2
        0x00001fbc:    4b27        'K      LDR      r3,[pc,#156] ; [0x205c] = 0x200001f5
        0x00001fbe:    701a        .p      STRB     r2,[r3,#0]
        0x00001fc0:    4a26        &J      LDR      r2,[pc,#152] ; [0x205c] = 0x200001f5
        0x00001fc2:    7812        .x      LDRB     r2,[r2,#0]
        0x00001fc4:    e005        ..      B        0x1fd2 ; 0x1fd2
        0x00001fc6:    220a        ."      MOVS     r2,#0xa
        0x00001fc8:    704a        Jp      STRB     r2,[r1,#1]
        0x00001fca:    22cc        ."      MOVS     r2,#0xcc
        0x00001fcc:    700a        .p      STRB     r2,[r1,#0]
        0x00001fce:    4920         I      LDR      r1,[pc,#128] ; [0x2050] = 0x50008020
        0x00001fd0:    2202        ."      MOVS     r2,#2
        0x00001fd2:    60ca        .`      STR      r2,[r1,#0xc]
        0x00001fd4:    680a        .h      LDR      r2,[r1,#0]
        0x00001fd6:    4302        .C      ORRS     r2,r2,r0
        0x00001fd8:    600a        .`      STR      r2,[r1,#0]
        0x00001fda:    b001        ..      ADD      sp,sp,#4
        0x00001fdc:    bdf0        ..      POP      {r4-r7,pc}
        0x00001fde:    46c0        .F      MOV      r8,r8
    $d
        0x00001fe0:    4027003c    <.'@    DCD    1076297788
        0x00001fe4:    20000190    ...     DCD    536871312
    $t
        0x00001fe8:    4818        .H      LDR      r0,[pc,#96] ; [0x204c] = 0x20000190
        0x00001fea:    2150        P!      MOVS     r1,#0x50
        0x00001fec:    7001        .p      STRB     r1,[r0,#0]
        0x00001fee:    1c40        @.      ADDS     r0,r0,#1
        0x00001ff0:    4924        $I      LDR      r1,[pc,#144] ; [0x2084] = 0x3c80
        0x00001ff2:    2214        ."      MOVS     r2,#0x14
        0x00001ff4:    f7fef8a2    ....    BL       __aeabi_memcpy ; 0x13c
        0x00001ff8:    2015        .       MOVS     r0,#0x15
        0x00001ffa:    60e8        .`      STR      r0,[r5,#0xc]
        0x00001ffc:    4917        .I      LDR      r1,[pc,#92] ; [0x205c] = 0x200001f5
        0x00001ffe:    7008        .p      STRB     r0,[r1,#0]
        0x00002000:    6828        (h      LDR      r0,[r5,#0]
        0x00002002:    4320         C      ORRS     r0,r0,r4
        0x00002004:    6028        (`      STR      r0,[r5,#0]
        0x00002006:    b001        ..      ADD      sp,sp,#4
        0x00002008:    bdf0        ..      POP      {r4-r7,pc}
        0x0000200a:    46c0        .F      MOV      r8,r8
    $d
        0x0000200c:    00003890    .8..    DCD    14480
        0x00002010:    40040008    ...@    DCD    1074003976
        0x00002014:    e000e180    ....    DCD    3758154112
        0x00002018:    fff7ffff    ....    DCD    4294443007
        0x0000201c:    50008020     ..P    DCD    1342210080
    $t
        0x00002020:    1c91        ..      ADDS     r1,r2,#2
        0x00002022:    4a0e        .J      LDR      r2,[pc,#56] ; [0x205c] = 0x200001f5
        0x00002024:    7011        .p      STRB     r1,[r2,#0]
        0x00002026:    490d        .I      LDR      r1,[pc,#52] ; [0x205c] = 0x200001f5
        0x00002028:    7809        .x      LDRB     r1,[r1,#0]
        0x0000202a:    4a09        .J      LDR      r2,[pc,#36] ; [0x2050] = 0x50008020
        0x0000202c:    60d1        .`      STR      r1,[r2,#0xc]
        0x0000202e:    6811        .h      LDR      r1,[r2,#0]
        0x00002030:    4301        .C      ORRS     r1,r1,r0
        0x00002032:    6011        .`      STR      r1,[r2,#0]
        0x00002034:    b001        ..      ADD      sp,sp,#4
        0x00002036:    bdf0        ..      POP      {r4-r7,pc}
    $d
        0x00002038:    20000178    x..     DCD    536871288
        0x0000203c:    e000e100    ....    DCD    3758153984
        0x00002040:    20000174    t..     DCD    536871284
    __arm_cp.28_1
        0x00002044:    50000100    ...P    DCD    1342177536
    __arm_cp.28_2
        0x00002048:    50000008    ...P    DCD    1342177288
    __arm_cp.28_3
        0x0000204c:    20000190    ...     DCD    536871312
    __arm_cp.28_4
        0x00002050:    50008020     ..P    DCD    1342210080
    __arm_cp.28_5
        0x00002054:    20000174    t..     DCD    536871284
    __arm_cp.28_6
        0x00002058:    e000e100    ....    DCD    3758153984
    __arm_cp.28_7
        0x0000205c:    200001f5    ...     DCD    536871413
    __arm_cp.28_8
        0x00002060:    20000178    x..     DCD    536871288
    __arm_cp.28_9
        0x00002064:    40040008    ...@    DCD    1074003976
    __arm_cp.28_10
        0x00002068:    4027003c    <.'@    DCD    1076297788
    __arm_cp.28_11
        0x0000206c:    000039b0    .9..    DCD    14768
    __arm_cp.28_12
        0x00002070:    00003ad0    .:..    DCD    15056
    __arm_cp.28_13
        0x00002074:    00003890    .8..    DCD    14480
    __arm_cp.28_14
        0x00002078:    2000001c    ...     DCD    536870940
    __arm_cp.28_15
        0x0000207c:    20000008    ...     DCD    536870920
    __arm_cp.28_16
        0x00002080:    20000018    ...     DCD    536870936
    __arm_cp.28_17
        0x00002084:    00003c80    .<..    DCD    15488
    __arm_cp.28_18
        0x00002088:    e000e180    ....    DCD    3758154112
    __arm_cp.28_19
        0x0000208c:    fff7ffff    ....    DCD    4294443007
    __arm_cp.28_20
        0x00002090:    5000c000    ...P    DCD    1342226432
    __arm_cp.28_21
        0x00002094:    20000185    ...     DCD    536871301
    __arm_cp.28_22
        0x00002098:    20000183    ...     DCD    536871299
    __arm_cp.28_23
        0x0000209c:    20000188    ...     DCD    536871304
    __arm_cp.28_24
        0x000020a0:    0000ffff    ....    DCD    65535
    __arm_cp.28_25
        0x000020a4:    200001f7    ...     DCD    536871415
    __arm_cp.28_26
        0x000020a8:    200000b0    ...     DCD    536871088
    __arm_cp.28_27
        0x000020ac:    20000060    `..     DCD    536871008
    __arm_cp.28_28
        0x000020b0:    200001f4    ...     DCD    536871412
    $t
    SW_Trg_ADC0_P4_Return_Reslut
        0x000020b4:    4841        AH      LDR      r0,[pc,#260] ; [0x21bc] = 0x400e0020
        0x000020b6:    6801        .h      LDR      r1,[r0,#0]
        0x000020b8:    22c0        ."      MOVS     r2,#0xc0
        0x000020ba:    4391        .C      BICS     r1,r1,r2
        0x000020bc:    6001        .`      STR      r1,[r0,#0]
        0x000020be:    4601        .F      MOV      r1,r0
        0x000020c0:    3910        .9      SUBS     r1,r1,#0x10
        0x000020c2:    680a        .h      LDR      r2,[r1,#0]
        0x000020c4:    4b0b        .K      LDR      r3,[pc,#44] ; [0x20f4] = 0xffff0000
        0x000020c6:    4013        .@      ANDS     r3,r3,r2
        0x000020c8:    3310        .3      ADDS     r3,r3,#0x10
        0x000020ca:    600b        .`      STR      r3,[r1,#0]
        0x000020cc:    6801        .h      LDR      r1,[r0,#0]
        0x000020ce:    2204        ."      MOVS     r2,#4
        0x000020d0:    4391        .C      BICS     r1,r1,r2
        0x000020d2:    6001        .`      STR      r1,[r0,#0]
        0x000020d4:    2101        .!      MOVS     r1,#1
        0x000020d6:    6101        .a      STR      r1,[r0,#0x10]
        0x000020d8:    6802        .h      LDR      r2,[r0,#0]
        0x000020da:    2308        .#      MOVS     r3,#8
        0x000020dc:    4313        .C      ORRS     r3,r3,r2
        0x000020de:    6003        .`      STR      r3,[r0,#0]
        0x000020e0:    6902        .i      LDR      r2,[r0,#0x10]
        0x000020e2:    07d2        ..      LSLS     r2,r2,#31
        0x000020e4:    d0fc        ..      BEQ      0x20e0 ; SW_Trg_ADC0_P4_Return_Reslut + 44
        0x000020e6:    6902        .i      LDR      r2,[r0,#0x10]
        0x000020e8:    430a        .C      ORRS     r2,r2,r1
        0x000020ea:    6102        .a      STR      r2,[r0,#0x10]
        0x000020ec:    4802        .H      LDR      r0,[pc,#8] ; [0x20f8] = 0x400e0090
        0x000020ee:    6800        .h      LDR      r0,[r0,#0]
        0x000020f0:    b280        ..      UXTH     r0,r0
        0x000020f2:    4770        pG      BX       lr
    $d
    __arm_cp.15_1
        0x000020f4:    ffff0000    ....    DCD    4294901760
    __arm_cp.15_2
        0x000020f8:    400e0090    ...@    DCD    1074659472
    $t
    SW_Trg_ADC1_P7_Return_Reslut
        0x000020fc:    b510        ..      PUSH     {r4,lr}
        0x000020fe:    482f        /H      LDR      r0,[pc,#188] ; [0x21bc] = 0x400e0020
        0x00002100:    6801        .h      LDR      r1,[r0,#0]
        0x00002102:    22c0        ."      MOVS     r2,#0xc0
        0x00002104:    4391        .C      BICS     r1,r1,r2
        0x00002106:    6001        .`      STR      r1,[r0,#0]
        0x00002108:    2201        ."      MOVS     r2,#1
        0x0000210a:    07d1        ..      LSLS     r1,r2,#31
        0x0000210c:    4603        .F      MOV      r3,r0
        0x0000210e:    3b10        .;      SUBS     r3,r3,#0x10
        0x00002110:    681c        .h      LDR      r4,[r3,#0]
        0x00002112:    b2a4        ..      UXTH     r4,r4
        0x00002114:    1861        a.      ADDS     r1,r4,r1
        0x00002116:    6019        .`      STR      r1,[r3,#0]
        0x00002118:    0291        ..      LSLS     r1,r2,#10
        0x0000211a:    6803        .h      LDR      r3,[r0,#0]
        0x0000211c:    438b        .C      BICS     r3,r3,r1
        0x0000211e:    6003        .`      STR      r3,[r0,#0]
        0x00002120:    0211        ..      LSLS     r1,r2,#8
        0x00002122:    6101        .a      STR      r1,[r0,#0x10]
        0x00002124:    02d2        ..      LSLS     r2,r2,#11
        0x00002126:    6803        .h      LDR      r3,[r0,#0]
        0x00002128:    4313        .C      ORRS     r3,r3,r2
        0x0000212a:    6003        .`      STR      r3,[r0,#0]
        0x0000212c:    6902        .i      LDR      r2,[r0,#0x10]
        0x0000212e:    420a        .B      TST      r2,r1
        0x00002130:    d0fc        ..      BEQ      0x212c ; SW_Trg_ADC1_P7_Return_Reslut + 48
        0x00002132:    6902        .i      LDR      r2,[r0,#0x10]
        0x00002134:    430a        .C      ORRS     r2,r2,r1
        0x00002136:    6102        .a      STR      r2,[r0,#0x10]
        0x00002138:    4801        .H      LDR      r0,[pc,#4] ; [0x2140] = 0x400e00fc
        0x0000213a:    6800        .h      LDR      r0,[r0,#0]
        0x0000213c:    b280        ..      UXTH     r0,r0
        0x0000213e:    bd10        ..      POP      {r4,pc}
    $d
    __arm_cp.12_1
        0x00002140:    400e00fc    ...@    DCD    1074659580
    $t
    SYS_Init_Clock
        0x00002144:    b5b0        ..      PUSH     {r4,r5,r7,lr}
        0x00002146:    4c0d        .L      LDR      r4,[pc,#52] ; [0x217c] = 0x50000100
        0x00002148:    2059        Y       MOVS     r0,#0x59
        0x0000214a:    6020         `      STR      r0,[r4,#0]
        0x0000214c:    2016        .       MOVS     r0,#0x16
        0x0000214e:    6020         `      STR      r0,[r4,#0]
        0x00002150:    2088        .       MOVS     r0,#0x88
        0x00002152:    6020         `      STR      r0,[r4,#0]
        0x00002154:    6820         h      LDR      r0,[r4,#0]
        0x00002156:    2800        .(      CMP      r0,#0
        0x00002158:    d0f6        ..      BEQ      0x2148 ; SYS_Init_Clock + 4
        0x0000215a:    4d7b        {M      LDR      r5,[pc,#492] ; [0x2348] = 0x50000200
        0x0000215c:    6828        (h      LDR      r0,[r5,#0]
        0x0000215e:    4908        .I      LDR      r1,[pc,#32] ; [0x2180] = 0x1000004
        0x00002160:    4301        .C      ORRS     r1,r1,r0
        0x00002162:    6029        )`      STR      r1,[r5,#0]
        0x00002164:    2010        .       MOVS     r0,#0x10
        0x00002166:    f7fef95f    .._.    BL       CLK_WaitClockReady ; 0x428
        0x0000216a:    6928        (i      LDR      r0,[r5,#0x10]
        0x0000216c:    2103        .!      MOVS     r1,#3
        0x0000216e:    4301        .C      ORRS     r1,r1,r0
        0x00002170:    6129        )a      STR      r1,[r5,#0x10]
        0x00002172:    f000f8bf    ....    BL       SystemCoreClockUpdate ; 0x22f4
        0x00002176:    2000        .       MOVS     r0,#0
        0x00002178:    6020         `      STR      r0,[r4,#0]
        0x0000217a:    bdb0        ..      POP      {r4,r5,r7,pc}
    $d
    __arm_cp.0_0
        0x0000217c:    50000100    ...P    DCD    1342177536
    __arm_cp.0_2
        0x00002180:    01000004    ....    DCD    16777220
    $t
    Set_ADC1_P1_ADC0_P3_Simu_HW_Trg_by_PWM0Period
        0x00002184:    480d        .H      LDR      r0,[pc,#52] ; [0x21bc] = 0x400e0020
        0x00002186:    490e        .I      LDR      r1,[pc,#56] ; [0x21c0] = 0x808
        0x00002188:    6902        .i      LDR      r2,[r0,#0x10]
        0x0000218a:    420a        .B      TST      r2,r1
        0x0000218c:    d1fc        ..      BNE      0x2188 ; Set_ADC1_P1_ADC0_P3_Simu_HW_Trg_by_PWM0Period + 4
        0x0000218e:    6801        .h      LDR      r1,[r0,#0]
        0x00002190:    2280        ."      MOVS     r2,#0x80
        0x00002192:    430a        .C      ORRS     r2,r2,r1
        0x00002194:    2140        @!      MOVS     r1,#0x40
        0x00002196:    438a        .C      BICS     r2,r2,r1
        0x00002198:    6002        .`      STR      r2,[r0,#0]
        0x0000219a:    4601        .F      MOV      r1,r0
        0x0000219c:    3910        .9      SUBS     r1,r1,#0x10
        0x0000219e:    680a        .h      LDR      r2,[r1,#0]
        0x000021a0:    4a08        .J      LDR      r2,[pc,#32] ; [0x21c4] = 0x20008
        0x000021a2:    600a        .`      STR      r2,[r1,#0]
        0x000021a4:    6801        .h      LDR      r1,[r0,#0]
        0x000021a6:    4a08        .J      LDR      r2,[pc,#32] ; [0x21c8] = 0x404
        0x000021a8:    430a        .C      ORRS     r2,r2,r1
        0x000021aa:    6002        .`      STR      r2,[r0,#0]
        0x000021ac:    6841        Ah      LDR      r1,[r0,#4]
        0x000021ae:    2231        1"      MOVS     r2,#0x31
        0x000021b0:    430a        .C      ORRS     r2,r2,r1
        0x000021b2:    21ce        .!      MOVS     r1,#0xce
        0x000021b4:    438a        .C      BICS     r2,r2,r1
        0x000021b6:    6042        B`      STR      r2,[r0,#4]
        0x000021b8:    4770        pG      BX       lr
        0x000021ba:    46c0        .F      MOV      r8,r8
    $d
    __arm_cp.20_0
        0x000021bc:    400e0020     ..@    DCD    1074659360
    __arm_cp.20_1
        0x000021c0:    00000808    ....    DCD    2056
    __arm_cp.20_2
        0x000021c4:    00020008    ....    DCD    131080
    __arm_cp.20_3
        0x000021c8:    00000404    ....    DCD    1028
    $t
    Set_EPWM_MASK_Enable
        0x000021cc:    2107        .!      MOVS     r1,#7
        0x000021ce:    0509        ..      LSLS     r1,r1,#20
        0x000021d0:    4a40        @J      LDR      r2,[pc,#256] ; [0x22d4] = 0x40040078
        0x000021d2:    6813        .h      LDR      r3,[r2,#0]
        0x000021d4:    430b        .C      ORRS     r3,r3,r1
        0x000021d6:    6013        .`      STR      r3,[r2,#0]
        0x000021d8:    6811        .h      LDR      r1,[r2,#0]
        0x000021da:    233f        ?#      MOVS     r3,#0x3f
        0x000021dc:    4399        .C      BICS     r1,r1,r3
        0x000021de:    4301        .C      ORRS     r1,r1,r0
        0x000021e0:    6011        .`      STR      r1,[r2,#0]
        0x000021e2:    0218        ..      LSLS     r0,r3,#8
        0x000021e4:    6811        .h      LDR      r1,[r2,#0]
        0x000021e6:    4301        .C      ORRS     r1,r1,r0
        0x000021e8:    6011        .`      STR      r1,[r2,#0]
        0x000021ea:    4770        pG      BX       lr
    Start_Motor_PWMOUT_ON
        0x000021ec:    b5f0        ..      PUSH     {r4-r7,lr}
        0x000021ee:    2307        .#      MOVS     r3,#7
        0x000021f0:    051c        ..      LSLS     r4,r3,#20
        0x000021f2:    4b38        8K      LDR      r3,[pc,#224] ; [0x22d4] = 0x40040078
        0x000021f4:    681d        .h      LDR      r5,[r3,#0]
        0x000021f6:    4325        %C      ORRS     r5,r5,r4
        0x000021f8:    601d        .`      STR      r5,[r3,#0]
        0x000021fa:    681c        .h      LDR      r4,[r3,#0]
        0x000021fc:    25c0        .%      MOVS     r5,#0xc0
        0x000021fe:    4325        %C      ORRS     r5,r5,r4
        0x00002200:    263f        ?&      MOVS     r6,#0x3f
        0x00002202:    43f4        .C      MVNS     r4,r6
        0x00002204:    4025        %@      ANDS     r5,r5,r4
        0x00002206:    601d        .`      STR      r5,[r3,#0]
        0x00002208:    0235        5.      LSLS     r5,r6,#8
        0x0000220a:    681e        .h      LDR      r6,[r3,#0]
        0x0000220c:    432e        .C      ORRS     r6,r6,r5
        0x0000220e:    601e        .`      STR      r6,[r3,#0]
        0x00002210:    4e12        .N      LDR      r6,[pc,#72] ; [0x225c] = 0x10001
        0x00002212:    4370        pC      MULS     r0,r6,r0
        0x00002214:    461f        .F      MOV      r7,r3
        0x00002216:    3f54        T?      SUBS     r7,r7,#0x54
        0x00002218:    6038        8`      STR      r0,[r7,#0]
        0x0000221a:    4371        qC      MULS     r1,r6,r1
        0x0000221c:    4618        .F      MOV      r0,r3
        0x0000221e:    384c        L8      SUBS     r0,r0,#0x4c
        0x00002220:    6001        .`      STR      r1,[r0,#0]
        0x00002222:    4372        rC      MULS     r2,r6,r2
        0x00002224:    4618        .F      MOV      r0,r3
        0x00002226:    3844        D8      SUBS     r0,r0,#0x44
        0x00002228:    6002        .`      STR      r2,[r0,#0]
        0x0000222a:    482b        +H      LDR      r0,[pc,#172] ; [0x22d8] = 0x50004000
        0x0000222c:    6881        .h      LDR      r1,[r0,#8]
        0x0000222e:    4021        !@      ANDS     r1,r1,r4
        0x00002230:    6081        .`      STR      r1,[r0,#8]
        0x00002232:    6801        .h      LDR      r1,[r0,#0]
        0x00002234:    4a29        )J      LDR      r2,[pc,#164] ; [0x22dc] = 0xfffff000
        0x00002236:    400a        .@      ANDS     r2,r2,r1
        0x00002238:    4929        )I      LDR      r1,[pc,#164] ; [0x22e0] = 0x555
        0x0000223a:    1851        Q.      ADDS     r1,r2,r1
        0x0000223c:    6001        .`      STR      r1,[r0,#0]
        0x0000223e:    20ff        .       MOVS     r0,#0xff
        0x00002240:    0600        ..      LSLS     r0,r0,#24
        0x00002242:    4928        (I      LDR      r1,[pc,#160] ; [0x22e4] = 0x50000030
        0x00002244:    680a        .h      LDR      r2,[r1,#0]
        0x00002246:    4002        .@      ANDS     r2,r2,r0
        0x00002248:    4805        .H      LDR      r0,[pc,#20] ; [0x2260] = 0x333333
        0x0000224a:    1810        ..      ADDS     r0,r2,r0
        0x0000224c:    6008        .`      STR      r0,[r1,#0]
        0x0000224e:    6818        .h      LDR      r0,[r3,#0]
        0x00002250:    601c        .`      STR      r4,[r3,#0]
        0x00002252:    6818        .h      LDR      r0,[r3,#0]
        0x00002254:    43a8        .C      BICS     r0,r0,r5
        0x00002256:    6018        .`      STR      r0,[r3,#0]
        0x00002258:    bdf0        ..      POP      {r4-r7,pc}
        0x0000225a:    46c0        .F      MOV      r8,r8
    $d
    __arm_cp.7_1
        0x0000225c:    00010001    ....    DCD    65537
    __arm_cp.7_6
        0x00002260:    00333333    333.    DCD    3355443
    $t
    Stop_Motor_PWMOUT_OFF
        0x00002264:    b510        ..      PUSH     {r4,lr}
        0x00002266:    20b6        .       MOVS     r0,#0xb6
        0x00002268:    4c8c        .L      LDR      r4,[pc,#560] ; [0x249c] = 0x200000b4
        0x0000226a:    2100        .!      MOVS     r1,#0
        0x0000226c:    5421        !T      STRB     r1,[r4,r0]
        0x0000226e:    2072        r       MOVS     r0,#0x72
        0x00002270:    5421        !T      STRB     r1,[r4,r0]
        0x00002272:    20b5        .       MOVS     r0,#0xb5
        0x00002274:    5421        !T      STRB     r1,[r4,r0]
        0x00002276:    2007        .       MOVS     r0,#7
        0x00002278:    0501        ..      LSLS     r1,r0,#20
        0x0000227a:    4816        .H      LDR      r0,[pc,#88] ; [0x22d4] = 0x40040078
        0x0000227c:    6802        .h      LDR      r2,[r0,#0]
        0x0000227e:    430a        .C      ORRS     r2,r2,r1
        0x00002280:    6002        .`      STR      r2,[r0,#0]
        0x00002282:    6801        .h      LDR      r1,[r0,#0]
        0x00002284:    22c0        ."      MOVS     r2,#0xc0
        0x00002286:    430a        .C      ORRS     r2,r2,r1
        0x00002288:    213f        ?!      MOVS     r1,#0x3f
        0x0000228a:    43cb        .C      MVNS     r3,r1
        0x0000228c:    401a        .@      ANDS     r2,r2,r3
        0x0000228e:    6002        .`      STR      r2,[r0,#0]
        0x00002290:    0209        ..      LSLS     r1,r1,#8
        0x00002292:    6802        .h      LDR      r2,[r0,#0]
        0x00002294:    430a        .C      ORRS     r2,r2,r1
        0x00002296:    6002        .`      STR      r2,[r0,#0]
        0x00002298:    480f        .H      LDR      r0,[pc,#60] ; [0x22d8] = 0x50004000
        0x0000229a:    6881        .h      LDR      r1,[r0,#8]
        0x0000229c:    4019        .@      ANDS     r1,r1,r3
        0x0000229e:    6081        .`      STR      r1,[r0,#8]
        0x000022a0:    6801        .h      LDR      r1,[r0,#0]
        0x000022a2:    4a0e        .J      LDR      r2,[pc,#56] ; [0x22dc] = 0xfffff000
        0x000022a4:    400a        .@      ANDS     r2,r2,r1
        0x000022a6:    490e        .I      LDR      r1,[pc,#56] ; [0x22e0] = 0x555
        0x000022a8:    1851        Q.      ADDS     r1,r2,r1
        0x000022aa:    6001        .`      STR      r1,[r0,#0]
        0x000022ac:    20ff        .       MOVS     r0,#0xff
        0x000022ae:    0600        ..      LSLS     r0,r0,#24
        0x000022b0:    490c        .I      LDR      r1,[pc,#48] ; [0x22e4] = 0x50000030
        0x000022b2:    680a        .h      LDR      r2,[r1,#0]
        0x000022b4:    4002        .@      ANDS     r2,r2,r0
        0x000022b6:    600a        .`      STR      r2,[r1,#0]
        0x000022b8:    f7fff834    ..4.    BL       Initialize_Motor_Parameters ; 0x1324
        0x000022bc:    f7fff93c    ..<.    BL       Initialize_PI_Parameters ; 0x1538
        0x000022c0:    4809        .H      LDR      r0,[pc,#36] ; [0x22e8] = 0x20000208
        0x000022c2:    8800        ..      LDRH     r0,[r0,#0]
        0x000022c4:    85e0        ..      STRH     r0,[r4,#0x2e]
        0x000022c6:    4809        .H      LDR      r0,[pc,#36] ; [0x22ec] = 0x2000020a
        0x000022c8:    8800        ..      LDRH     r0,[r0,#0]
        0x000022ca:    8620         .      STRH     r0,[r4,#0x30]
        0x000022cc:    4808        .H      LDR      r0,[pc,#32] ; [0x22f0] = 0x2000020c
        0x000022ce:    8800        ..      LDRH     r0,[r0,#0]
        0x000022d0:    8660        `.      STRH     r0,[r4,#0x32]
        0x000022d2:    bd10        ..      POP      {r4,pc}
    $d
    __arm_cp.6_1
        0x000022d4:    40040078    x..@    DCD    1074004088
    __arm_cp.6_2
        0x000022d8:    50004000    .@.P    DCD    1342193664
    __arm_cp.6_3
        0x000022dc:    fffff000    ....    DCD    4294963200
    __arm_cp.6_4
        0x000022e0:    00000555    U...    DCD    1365
    __arm_cp.6_5
        0x000022e4:    50000030    0..P    DCD    1342177328
    __arm_cp.6_6
        0x000022e8:    20000208    ...     DCD    536871432
    __arm_cp.6_7
        0x000022ec:    2000020a    ...     DCD    536871434
    __arm_cp.6_8
        0x000022f0:    2000020c    ...     DCD    536871436
    $t
    SystemCoreClockUpdate
        0x000022f4:    b510        ..      PUSH     {r4,lr}
        0x000022f6:    4914        .I      LDR      r1,[pc,#80] ; [0x2348] = 0x50000200
        0x000022f8:    6808        .h      LDR      r0,[r1,#0]
        0x000022fa:    01c0        ..      LSLS     r0,r0,#7
        0x000022fc:    d501        ..      BPL      0x2302 ; SystemCoreClockUpdate + 14
        0x000022fe:    4a14        .J      LDR      r2,[pc,#80] ; [0x2350] = 0x3938700
        0x00002300:    e000        ..      B        0x2304 ; SystemCoreClockUpdate + 16
        0x00002302:    4a12        .J      LDR      r2,[pc,#72] ; [0x234c] = 0x2dc6c00
        0x00002304:    4813        .H      LDR      r0,[pc,#76] ; [0x2354] = 0x20000064
        0x00002306:    6002        .`      STR      r2,[r0,#0]
        0x00002308:    6908        .i      LDR      r0,[r1,#0x10]
        0x0000230a:    2303        .#      MOVS     r3,#3
        0x0000230c:    4003        .@      ANDS     r3,r3,r0
        0x0000230e:    4812        .H      LDR      r0,[pc,#72] ; [0x2358] = 0x16e3600
        0x00002310:    447b        {D      ADD      r3,r3,pc
        0x00002312:    791b        .y      LDRB     r3,[r3,#4]
        0x00002314:    005b        [.      LSLS     r3,r3,#1
        0x00002316:    449f        .D      ADD      pc,pc,r3
    $d
        0x00002318:    05030106    ....    DCD    84082950
    $t
        0x0000231c:    480f        .H      LDR      r0,[pc,#60] ; [0x235c] = 0x2710
        0x0000231e:    e002        ..      B        0x2326 ; SystemCoreClockUpdate + 50
        0x00002320:    2000        .       MOVS     r0,#0
        0x00002322:    e000        ..      B        0x2326 ; SystemCoreClockUpdate + 50
        0x00002324:    4610        .F      MOV      r0,r2
        0x00002326:    6a09        .j      LDR      r1,[r1,#0x20]
        0x00002328:    220f        ."      MOVS     r2,#0xf
        0x0000232a:    400a        .@      ANDS     r2,r2,r1
        0x0000232c:    1c51        Q.      ADDS     r1,r2,#1
        0x0000232e:    f7fdff29    ..).    BL       __aeabi_uidiv ; 0x184
        0x00002332:    490b        .I      LDR      r1,[pc,#44] ; [0x2360] = 0x2000005c
        0x00002334:    6008        .`      STR      r0,[r1,#0]
        0x00002336:    490b        .I      LDR      r1,[pc,#44] ; [0x2364] = 0x7a120
        0x00002338:    1840        @.      ADDS     r0,r0,r1
        0x0000233a:    490b        .I      LDR      r1,[pc,#44] ; [0x2368] = 0xf4240
        0x0000233c:    f7fdff22    ..".    BL       __aeabi_uidiv ; 0x184
        0x00002340:    490a        .I      LDR      r1,[pc,#40] ; [0x236c] = 0x20000004
        0x00002342:    6008        .`      STR      r0,[r1,#0]
        0x00002344:    bd10        ..      POP      {r4,pc}
        0x00002346:    46c0        .F      MOV      r8,r8
    $d
    __arm_cp.0_0
        0x00002348:    50000200    ...P    DCD    1342177792
    __arm_cp.0_1
        0x0000234c:    02dc6c00    .l..    DCD    48000000
    __arm_cp.0_2
        0x00002350:    03938700    ....    DCD    60000000
    __arm_cp.0_3
        0x00002354:    20000064    d..     DCD    536871012
    __arm_cp.0_4
        0x00002358:    016e3600    .6n.    DCD    24000000
    __arm_cp.0_5
        0x0000235c:    00002710    .'..    DCD    10000
    __arm_cp.0_6
        0x00002360:    2000005c    \..     DCD    536871004
    __arm_cp.0_7
        0x00002364:    0007a120     ...    DCD    500000
    __arm_cp.0_8
        0x00002368:    000f4240    @B..    DCD    1000000
    __arm_cp.0_9
        0x0000236c:    20000004    ...     DCD    536870916
    $t
    SystemInit
        0x00002370:    4770        pG      BX       lr
        0x00002372:    0000        ..      MOVS     r0,r0
    TMR0_IRQHandler
        0x00002374:    b570        p.      PUSH     {r4-r6,lr}
        0x00002376:    4845        EH      LDR      r0,[pc,#276] ; [0x248c] = 0x40010008
        0x00002378:    2601        .&      MOVS     r6,#1
        0x0000237a:    6006        .`      STR      r6,[r0,#0]
        0x0000237c:    4844        DH      LDR      r0,[pc,#272] ; [0x2490] = 0x20000228
        0x0000237e:    8801        ..      LDRH     r1,[r0,#0]
        0x00002380:    1c4a        J.      ADDS     r2,r1,#1
        0x00002382:    8002        ..      STRH     r2,[r0,#0]
        0x00002384:    b293        ..      UXTH     r3,r2
        0x00002386:    4293        .B      CMP      r3,r2
        0x00002388:    d120         .      BNE      0x23cc ; TMR0_IRQHandler + 88
        0x0000238a:    8001        ..      STRH     r1,[r0,#0]
        0x0000238c:    4841        AH      LDR      r0,[pc,#260] ; [0x2494] = 0x2000022c
        0x0000238e:    7006        .p      STRB     r6,[r0,#0]
        0x00002390:    4841        AH      LDR      r0,[pc,#260] ; [0x2498] = 0x20000224
        0x00002392:    8801        ..      LDRH     r1,[r0,#0]
        0x00002394:    1c49        I.      ADDS     r1,r1,#1
        0x00002396:    8001        ..      STRH     r1,[r0,#0]
        0x00002398:    2072        r       MOVS     r0,#0x72
        0x0000239a:    4cb9        .L      LDR      r4,[pc,#740] ; [0x2680] = 0x200000b4
        0x0000239c:    5c20         \      LDRB     r0,[r4,r0]
        0x0000239e:    2800        .(      CMP      r0,#0
        0x000023a0:    d003        ..      BEQ      0x23aa ; TMR0_IRQHandler + 54
        0x000023a2:    48b7        .H      LDR      r0,[pc,#732] ; [0x2680] = 0x200000b4
        0x000023a4:    f000fa7a    ..z.    BL       cmd_speed_slope_with_hall ; 0x289c
        0x000023a8:    e001        ..      B        0x23ae ; TMR0_IRQHandler + 58
        0x000023aa:    f7ffff5b    ..[.    BL       Stop_Motor_PWMOUT_OFF ; 0x2264
        0x000023ae:    2068        h       MOVS     r0,#0x68
        0x000023b0:    5a20         Z      LDRH     r0,[r4,r0]
        0x000023b2:    8ea1        ..      LDRH     r1,[r4,#0x34]
        0x000023b4:    1a40        @.      SUBS     r0,r0,r1
        0x000023b6:    86e0        ..      STRH     r0,[r4,#0x36]
        0x000023b8:    4939        9I      LDR      r1,[pc,#228] ; [0x24a0] = 0x2000004c
        0x000023ba:    2500        .%      MOVS     r5,#0
        0x000023bc:    4620         F      MOV      r0,r4
        0x000023be:    462a        *F      MOV      r2,r5
        0x000023c0:    f7fffb38    ..8.    BL       PI_speed ; 0x1a34
        0x000023c4:    2152        R!      MOVS     r1,#0x52
        0x000023c6:    5260        `R      STRH     r0,[r4,r1]
        0x000023c8:    2050        P       MOVS     r0,#0x50
        0x000023ca:    5225        %R      STRH     r5,[r4,r0]
        0x000023cc:    4832        2H      LDR      r0,[pc,#200] ; [0x2498] = 0x20000224
        0x000023ce:    8801        ..      LDRH     r1,[r0,#0]
        0x000023d0:    290a        .)      CMP      r1,#0xa
        0x000023d2:    d338        8.      BCC      0x2446 ; TMR0_IRQHandler + 210
        0x000023d4:    4a33        3J      LDR      r2,[pc,#204] ; [0x24a4] = 0x2000022b
        0x000023d6:    7016        .p      STRB     r6,[r2,#0]
        0x000023d8:    390a        .9      SUBS     r1,r1,#0xa
        0x000023da:    8001        ..      STRH     r1,[r0,#0]
        0x000023dc:    4832        2H      LDR      r0,[pc,#200] ; [0x24a8] = 0x20000222
        0x000023de:    8801        ..      LDRH     r1,[r0,#0]
        0x000023e0:    1c49        I.      ADDS     r1,r1,#1
        0x000023e2:    8001        ..      STRH     r1,[r0,#0]
        0x000023e4:    4831        1H      LDR      r0,[pc,#196] ; [0x24ac] = 0x400d0008
        0x000023e6:    6800        .h      LDR      r0,[r0,#0]
        0x000023e8:    0740        @.      LSLS     r0,r0,#29
        0x000023ea:    d42c        ,.      BMI      0x2446 ; TMR0_IRQHandler + 210
        0x000023ec:    4830        0H      LDR      r0,[pc,#192] ; [0x24b0] = 0x2000022f
        0x000023ee:    7800        .x      LDRB     r0,[r0,#0]
        0x000023f0:    2801        .(      CMP      r0,#1
        0x000023f2:    d110        ..      BNE      0x2416 ; TMR0_IRQHandler + 162
        0x000023f4:    2172        r!      MOVS     r1,#0x72
        0x000023f6:    48a2        .H      LDR      r0,[pc,#648] ; [0x2680] = 0x200000b4
        0x000023f8:    5c41        A\      LDRB     r1,[r0,r1]
        0x000023fa:    2900        .)      CMP      r1,#0
        0x000023fc:    d103        ..      BNE      0x2406 ; TMR0_IRQHandler + 146
        0x000023fe:    492e        .I      LDR      r1,[pc,#184] ; [0x24b8] = 0x50004818
        0x00002400:    6809        .h      LDR      r1,[r1,#0]
        0x00002402:    2273        s"      MOVS     r2,#0x73
        0x00002404:    5481        .T      STRB     r1,[r0,r2]
        0x00002406:    4c9e        .L      LDR      r4,[pc,#632] ; [0x2680] = 0x200000b4
        0x00002408:    4620         F      MOV      r0,r4
        0x0000240a:    f000fc1b    ....    BL       read_VSP_Check_ON_OFF_Motor ; 0x2c44
        0x0000240e:    4620         F      MOV      r0,r4
        0x00002410:    f000fc44    ..D.    BL       read_VSP_to_speed_cmd ; 0x2c9c
        0x00002414:    e017        ..      B        0x2446 ; TMR0_IRQHandler + 210
        0x00002416:    4827        'H      LDR      r0,[pc,#156] ; [0x24b4] = 0x2000022e
        0x00002418:    7800        .x      LDRB     r0,[r0,#0]
        0x0000241a:    2801        .(      CMP      r0,#1
        0x0000241c:    d113        ..      BNE      0x2446 ; TMR0_IRQHandler + 210
        0x0000241e:    f7fef843    ..C.    BL       Command_update ; 0x4a8
        0x00002422:    4c97        .L      LDR      r4,[pc,#604] ; [0x2680] = 0x200000b4
        0x00002424:    4620         F      MOV      r0,r4
        0x00002426:    f000fbe9    ....    BL       read_UART_Check_ON_OFF_Motor ; 0x2bfc
        0x0000242a:    206a        j       MOVS     r0,#0x6a
        0x0000242c:    5e21        !^      LDRSH    r1,[r4,r0]
        0x0000242e:    2273        s"      MOVS     r2,#0x73
        0x00002430:    5ca2        .\      LDRB     r2,[r4,r2]
        0x00002432:    2a00        .*      CMP      r2,#0
        0x00002434:    d101        ..      BNE      0x243a ; TMR0_IRQHandler + 198
        0x00002436:    2900        .)      CMP      r1,#0
        0x00002438:    dc03        ..      BGT      0x2442 ; TMR0_IRQHandler + 206
        0x0000243a:    2a01        .*      CMP      r2,#1
        0x0000243c:    d103        ..      BNE      0x2446 ; TMR0_IRQHandler + 210
        0x0000243e:    2900        .)      CMP      r1,#0
        0x00002440:    d501        ..      BPL      0x2446 ; TMR0_IRQHandler + 210
        0x00002442:    4249        IB      RSBS     r1,r1,#0
        0x00002444:    5221        !R      STRH     r1,[r4,r0]
        0x00002446:    4818        .H      LDR      r0,[pc,#96] ; [0x24a8] = 0x20000222
        0x00002448:    8801        ..      LDRH     r1,[r0,#0]
        0x0000244a:    290a        .)      CMP      r1,#0xa
        0x0000244c:    d307        ..      BCC      0x245e ; TMR0_IRQHandler + 234
        0x0000244e:    4a1b        .J      LDR      r2,[pc,#108] ; [0x24bc] = 0x2000022a
        0x00002450:    7016        .p      STRB     r6,[r2,#0]
        0x00002452:    390a        .9      SUBS     r1,r1,#0xa
        0x00002454:    8001        ..      STRH     r1,[r0,#0]
        0x00002456:    481a        .H      LDR      r0,[pc,#104] ; [0x24c0] = 0x20000220
        0x00002458:    8801        ..      LDRH     r1,[r0,#0]
        0x0000245a:    1c49        I.      ADDS     r1,r1,#1
        0x0000245c:    8001        ..      STRH     r1,[r0,#0]
        0x0000245e:    4818        .H      LDR      r0,[pc,#96] ; [0x24c0] = 0x20000220
        0x00002460:    8801        ..      LDRH     r1,[r0,#0]
        0x00002462:    2905        .)      CMP      r1,#5
        0x00002464:    d30c        ..      BCC      0x2480 ; TMR0_IRQHandler + 268
        0x00002466:    4a17        .J      LDR      r2,[pc,#92] ; [0x24c4] = 0x2000022d
        0x00002468:    7016        .p      STRB     r6,[r2,#0]
        0x0000246a:    1f49        I.      SUBS     r1,r1,#5
        0x0000246c:    8001        ..      STRH     r1,[r0,#0]
        0x0000246e:    4816        .H      LDR      r0,[pc,#88] ; [0x24c8] = 0x20000226
        0x00002470:    8801        ..      LDRH     r1,[r0,#0]
        0x00002472:    1c49        I.      ADDS     r1,r1,#1
        0x00002474:    8001        ..      STRH     r1,[r0,#0]
        0x00002476:    20b7        .       MOVS     r0,#0xb7
        0x00002478:    4981        .I      LDR      r1,[pc,#516] ; [0x2680] = 0x200000b4
        0x0000247a:    5c08        .\      LDRB     r0,[r1,r0]
        0x0000247c:    2800        .(      CMP      r0,#0
        0x0000247e:    d000        ..      BEQ      0x2482 ; TMR0_IRQHandler + 270
        0x00002480:    bd70        p.      POP      {r4-r6,pc}
        0x00002482:    4812        .H      LDR      r0,[pc,#72] ; [0x24cc] = 0x50004950
        0x00002484:    6801        .h      LDR      r1,[r0,#0]
        0x00002486:    1c49        I.      ADDS     r1,r1,#1
        0x00002488:    6001        .`      STR      r1,[r0,#0]
        0x0000248a:    bd70        p.      POP      {r4-r6,pc}
    $d
    __arm_cp.0_0
        0x0000248c:    40010008    ...@    DCD    1073807368
    __arm_cp.0_1
        0x00002490:    20000228    (..     DCD    536871464
    __arm_cp.0_2
        0x00002494:    2000022c    ,..     DCD    536871468
    __arm_cp.0_3
        0x00002498:    20000224    $..     DCD    536871460
    __arm_cp.0_4
        0x0000249c:    200000b4    ...     DCD    536871092
    __arm_cp.0_5
        0x000024a0:    2000004c    L..     DCD    536870988
    __arm_cp.0_6
        0x000024a4:    2000022b    +..     DCD    536871467
    __arm_cp.0_7
        0x000024a8:    20000222    "..     DCD    536871458
    __arm_cp.0_8
        0x000024ac:    400d0008    ...@    DCD    1074593800
    __arm_cp.0_9
        0x000024b0:    2000022f    /..     DCD    536871471
    __arm_cp.0_10
        0x000024b4:    2000022e    ...     DCD    536871470
    __arm_cp.0_11
        0x000024b8:    50004818    .H.P    DCD    1342195736
    __arm_cp.0_12
        0x000024bc:    2000022a    *..     DCD    536871466
    __arm_cp.0_13
        0x000024c0:    20000220     ..     DCD    536871456
    __arm_cp.0_14
        0x000024c4:    2000022d    -..     DCD    536871469
    __arm_cp.0_15
        0x000024c8:    20000226    &..     DCD    536871462
    __arm_cp.0_16
        0x000024cc:    50004950    PI.P    DCD    1342196048
    $t
    TX_data_to_PC
        0x000024d0:    b5f0        ..      PUSH     {r4-r7,lr}
        0x000024d2:    b081        ..      SUB      sp,sp,#4
        0x000024d4:    b202        ..      SXTH     r2,r0
        0x000024d6:    13d2        ..      ASRS     r2,r2,#15
        0x000024d8:    4050        P@      EORS     r0,r0,r2
        0x000024da:    1a80        ..      SUBS     r0,r0,r2
        0x000024dc:    b202        ..      SXTH     r2,r0
        0x000024de:    2a00        .*      CMP      r2,#0
        0x000024e0:    d409        ..      BMI      0x24f6 ; TX_data_to_PC + 38
        0x000024e2:    b280        ..      UXTH     r0,r0
        0x000024e4:    4288        .B      CMP      r0,r1
        0x000024e6:    d206        ..      BCS      0x24f6 ; TX_data_to_PC + 38
        0x000024e8:    4875        uH      LDR      r0,[pc,#468] ; [0x26c0] = 0x200001f7
        0x000024ea:    7800        .x      LDRB     r0,[r0,#0]
        0x000024ec:    2801        .(      CMP      r0,#1
        0x000024ee:    d102        ..      BNE      0x24f6 ; TX_data_to_PC + 38
        0x000024f0:    4874        tH      LDR      r0,[pc,#464] ; [0x26c4] = 0x200001f8
        0x000024f2:    2101        .!      MOVS     r1,#1
        0x000024f4:    7001        .p      STRB     r1,[r0,#0]
        0x000024f6:    4873        sH      LDR      r0,[pc,#460] ; [0x26c4] = 0x200001f8
        0x000024f8:    7801        .x      LDRB     r1,[r0,#0]
        0x000024fa:    2901        .)      CMP      r1,#1
        0x000024fc:    d135        5.      BNE      0x256a ; TX_data_to_PC + 154
        0x000024fe:    2101        .!      MOVS     r1,#1
        0x00002500:    020a        ..      LSLS     r2,r1,#8
        0x00002502:    4b5d        ]K      LDR      r3,[pc,#372] ; [0x2678] = 0x4027003c
        0x00002504:    681c        .h      LDR      r4,[r3,#0]
        0x00002506:    4214        .B      TST      r4,r2
        0x00002508:    d0fc        ..      BEQ      0x2504 ; TX_data_to_PC + 52
        0x0000250a:    4a5c        \J      LDR      r2,[pc,#368] ; [0x267c] = 0x20000190
        0x0000250c:    2330        0#      MOVS     r3,#0x30
        0x0000250e:    7013        .p      STRB     r3,[r2,#0]
        0x00002510:    4b64        dK      LDR      r3,[pc,#400] ; [0x26a4] = 0x3ad0
        0x00002512:    3339        93      ADDS     r3,r3,#0x39
        0x00002514:    2400        .$      MOVS     r4,#0
        0x00002516:    1915        ..      ADDS     r5,r2,r4
        0x00002518:    781e        .x      LDRB     r6,[r3,#0]
        0x0000251a:    1f5f        _.      SUBS     r7,r3,#5
        0x0000251c:    683f        ?h      LDR      r7,[r7,#0]
        0x0000251e:    7878        xx      LDRB     r0,[r7,#1]
        0x00002520:    4030        0@      ANDS     r0,r0,r6
        0x00002522:    7068        hp      STRB     r0,[r5,#1]
        0x00002524:    1e58        X.      SUBS     r0,r3,#1
        0x00002526:    7800        .x      LDRB     r0,[r0,#0]
        0x00002528:    783e        >x      LDRB     r6,[r7,#0]
        0x0000252a:    4006        .@      ANDS     r6,r6,r0
        0x0000252c:    70ae        .p      STRB     r6,[r5,#2]
        0x0000252e:    3348        H3      ADDS     r3,r3,#0x48
        0x00002530:    1ca4        ..      ADDS     r4,r4,#2
        0x00002532:    2c0c        .,      CMP      r4,#0xc
        0x00002534:    d1ef        ..      BNE      0x2516 ; TX_data_to_PC + 70
        0x00002536:    4853        SH      LDR      r0,[pc,#332] ; [0x2684] = 0x50008020
        0x00002538:    220d        ."      MOVS     r2,#0xd
        0x0000253a:    60c2        .`      STR      r2,[r0,#0xc]
        0x0000253c:    4b53        SK      LDR      r3,[pc,#332] ; [0x268c] = 0x200001f5
        0x0000253e:    701a        .p      STRB     r2,[r3,#0]
        0x00002540:    4a59        YJ      LDR      r2,[pc,#356] ; [0x26a8] = 0x200000b0
        0x00002542:    8813        ..      LDRH     r3,[r2,#0]
        0x00002544:    1c5b        [.      ADDS     r3,r3,#1
        0x00002546:    8013        ..      STRH     r3,[r2,#0]
        0x00002548:    6804        .h      LDR      r4,[r0,#0]
        0x0000254a:    430c        .C      ORRS     r4,r4,r1
        0x0000254c:    6004        .`      STR      r4,[r0,#0]
        0x0000254e:    4857        WH      LDR      r0,[pc,#348] ; [0x26ac] = 0x20000060
        0x00002550:    8800        ..      LDRH     r0,[r0,#0]
        0x00002552:    b299        ..      UXTH     r1,r3
        0x00002554:    4281        .B      CMP      r1,r0
        0x00002556:    d000        ..      BEQ      0x255a ; TX_data_to_PC + 138
        0x00002558:    e084        ..      B        0x2664 ; TX_data_to_PC + 404
        0x0000255a:    2000        .       MOVS     r0,#0
        0x0000255c:    4959        YI      LDR      r1,[pc,#356] ; [0x26c4] = 0x200001f8
        0x0000255e:    7008        .p      STRB     r0,[r1,#0]
        0x00002560:    4957        WI      LDR      r1,[pc,#348] ; [0x26c0] = 0x200001f7
        0x00002562:    7008        .p      STRB     r0,[r1,#0]
        0x00002564:    8010        ..      STRH     r0,[r2,#0]
        0x00002566:    b001        ..      ADD      sp,sp,#4
        0x00002568:    bdf0        ..      POP      {r4-r7,pc}
        0x0000256a:    483f        ?H      LDR      r0,[pc,#252] ; [0x2668] = 0x200001f6
        0x0000256c:    7801        .x      LDRB     r1,[r0,#0]
        0x0000256e:    2901        .)      CMP      r1,#1
        0x00002570:    d11d        ..      BNE      0x25ae ; TX_data_to_PC + 222
        0x00002572:    2100        .!      MOVS     r1,#0
        0x00002574:    7001        .p      STRB     r1,[r0,#0]
        0x00002576:    2001        .       MOVS     r0,#1
        0x00002578:    0202        ..      LSLS     r2,r0,#8
        0x0000257a:    4b3f        ?K      LDR      r3,[pc,#252] ; [0x2678] = 0x4027003c
        0x0000257c:    681c        .h      LDR      r4,[r3,#0]
        0x0000257e:    4214        .B      TST      r4,r2
        0x00002580:    d0fc        ..      BEQ      0x257c ; TX_data_to_PC + 172
        0x00002582:    4a3e        >J      LDR      r2,[pc,#248] ; [0x267c] = 0x20000190
        0x00002584:    2331        1#      MOVS     r3,#0x31
        0x00002586:    7013        .p      STRB     r3,[r2,#0]
        0x00002588:    4b45        EK      LDR      r3,[pc,#276] ; [0x26a0] = 0x39b0
        0x0000258a:    3339        93      ADDS     r3,r3,#0x39
        0x0000258c:    1854        T.      ADDS     r4,r2,r1
        0x0000258e:    781d        .x      LDRB     r5,[r3,#0]
        0x00002590:    1f5e        ^.      SUBS     r6,r3,#5
        0x00002592:    6836        6h      LDR      r6,[r6,#0]
        0x00002594:    7877        wx      LDRB     r7,[r6,#1]
        0x00002596:    402f        /@      ANDS     r7,r7,r5
        0x00002598:    7067        gp      STRB     r7,[r4,#1]
        0x0000259a:    1e5d        ].      SUBS     r5,r3,#1
        0x0000259c:    782d        -x      LDRB     r5,[r5,#0]
        0x0000259e:    7836        6x      LDRB     r6,[r6,#0]
        0x000025a0:    402e        .@      ANDS     r6,r6,r5
        0x000025a2:    70a6        .p      STRB     r6,[r4,#2]
        0x000025a4:    3348        H3      ADDS     r3,r3,#0x48
        0x000025a6:    1c89        ..      ADDS     r1,r1,#2
        0x000025a8:    2908        .)      CMP      r1,#8
        0x000025aa:    d1ef        ..      BNE      0x258c ; TX_data_to_PC + 188
        0x000025ac:    e020         .      B        0x25f0 ; TX_data_to_PC + 288
        0x000025ae:    482f        /H      LDR      r0,[pc,#188] ; [0x266c] = 0x200001f4
        0x000025b0:    7801        .x      LDRB     r1,[r0,#0]
        0x000025b2:    2901        .)      CMP      r1,#1
        0x000025b4:    d126        &.      BNE      0x2604 ; TX_data_to_PC + 308
        0x000025b6:    2100        .!      MOVS     r1,#0
        0x000025b8:    7001        .p      STRB     r1,[r0,#0]
        0x000025ba:    2001        .       MOVS     r0,#1
        0x000025bc:    0202        ..      LSLS     r2,r0,#8
        0x000025be:    4b2e        .K      LDR      r3,[pc,#184] ; [0x2678] = 0x4027003c
        0x000025c0:    681c        .h      LDR      r4,[r3,#0]
        0x000025c2:    4214        .B      TST      r4,r2
        0x000025c4:    d0fc        ..      BEQ      0x25c0 ; TX_data_to_PC + 240
        0x000025c6:    4a2d        -J      LDR      r2,[pc,#180] ; [0x267c] = 0x20000190
        0x000025c8:    2332        2#      MOVS     r3,#0x32
        0x000025ca:    7013        .p      STRB     r3,[r2,#0]
        0x000025cc:    4b33        3K      LDR      r3,[pc,#204] ; [0x269c] = 0x3890
        0x000025ce:    3339        93      ADDS     r3,r3,#0x39
        0x000025d0:    1854        T.      ADDS     r4,r2,r1
        0x000025d2:    781d        .x      LDRB     r5,[r3,#0]
        0x000025d4:    1f5e        ^.      SUBS     r6,r3,#5
        0x000025d6:    6836        6h      LDR      r6,[r6,#0]
        0x000025d8:    7877        wx      LDRB     r7,[r6,#1]
        0x000025da:    402f        /@      ANDS     r7,r7,r5
        0x000025dc:    7067        gp      STRB     r7,[r4,#1]
        0x000025de:    1e5d        ].      SUBS     r5,r3,#1
        0x000025e0:    782d        -x      LDRB     r5,[r5,#0]
        0x000025e2:    7836        6x      LDRB     r6,[r6,#0]
        0x000025e4:    402e        .@      ANDS     r6,r6,r5
        0x000025e6:    70a6        .p      STRB     r6,[r4,#2]
        0x000025e8:    3348        H3      ADDS     r3,r3,#0x48
        0x000025ea:    1c89        ..      ADDS     r1,r1,#2
        0x000025ec:    2908        .)      CMP      r1,#8
        0x000025ee:    d1ef        ..      BNE      0x25d0 ; TX_data_to_PC + 256
        0x000025f0:    4924        $I      LDR      r1,[pc,#144] ; [0x2684] = 0x50008020
        0x000025f2:    2209        ."      MOVS     r2,#9
        0x000025f4:    60ca        .`      STR      r2,[r1,#0xc]
        0x000025f6:    4b25        %K      LDR      r3,[pc,#148] ; [0x268c] = 0x200001f5
        0x000025f8:    701a        .p      STRB     r2,[r3,#0]
        0x000025fa:    680a        .h      LDR      r2,[r1,#0]
        0x000025fc:    4302        .C      ORRS     r2,r2,r0
        0x000025fe:    600a        .`      STR      r2,[r1,#0]
        0x00002600:    b001        ..      ADD      sp,sp,#4
        0x00002602:    bdf0        ..      POP      {r4-r7,pc}
        0x00002604:    481a        .H      LDR      r0,[pc,#104] ; [0x2670] = 0x20000183
        0x00002606:    7801        .x      LDRB     r1,[r0,#0]
        0x00002608:    2901        .)      CMP      r1,#1
        0x0000260a:    d10d        ..      BNE      0x2628 ; TX_data_to_PC + 344
        0x0000260c:    2100        .!      MOVS     r1,#0
        0x0000260e:    7001        .p      STRB     r1,[r0,#0]
        0x00002610:    7840        @x      LDRB     r0,[r0,#1]
        0x00002612:    491f        .I      LDR      r1,[pc,#124] ; [0x2690] = 0x20000018
        0x00002614:    5c0a        .\      LDRB     r2,[r1,r0]
        0x00002616:    0081        ..      LSLS     r1,r0,#2
        0x00002618:    481e        .H      LDR      r0,[pc,#120] ; [0x2694] = 0x20000008
        0x0000261a:    5840        @X      LDR      r0,[r0,r1]
        0x0000261c:    4b1e        .K      LDR      r3,[pc,#120] ; [0x2698] = 0x2000001c
        0x0000261e:    5859        YX      LDR      r1,[r3,r1]
        0x00002620:    f7fffa30    ..0.    BL       Refresh ; 0x1a84
        0x00002624:    b001        ..      ADD      sp,sp,#4
        0x00002626:    bdf0        ..      POP      {r4-r7,pc}
        0x00002628:    4812        .H      LDR      r0,[pc,#72] ; [0x2674] = 0x20000185
        0x0000262a:    7801        .x      LDRB     r1,[r0,#0]
        0x0000262c:    2901        .)      CMP      r1,#1
        0x0000262e:    d119        ..      BNE      0x2664 ; TX_data_to_PC + 404
        0x00002630:    2100        .!      MOVS     r1,#0
        0x00002632:    7001        .p      STRB     r1,[r0,#0]
        0x00002634:    2001        .       MOVS     r0,#1
        0x00002636:    0202        ..      LSLS     r2,r0,#8
        0x00002638:    4b0f        .K      LDR      r3,[pc,#60] ; [0x2678] = 0x4027003c
        0x0000263a:    681c        .h      LDR      r4,[r3,#0]
        0x0000263c:    4214        .B      TST      r4,r2
        0x0000263e:    d0fc        ..      BEQ      0x263a ; TX_data_to_PC + 362
        0x00002640:    4a0e        .J      LDR      r2,[pc,#56] ; [0x267c] = 0x20000190
        0x00002642:    7091        .p      STRB     r1,[r2,#2]
        0x00002644:    7051        Qp      STRB     r1,[r2,#1]
        0x00002646:    7011        .p      STRB     r1,[r2,#0]
        0x00002648:    2372        r#      MOVS     r3,#0x72
        0x0000264a:    4c0d        .L      LDR      r4,[pc,#52] ; [0x2680] = 0x200000b4
        0x0000264c:    5ce3        .\      LDRB     r3,[r4,r3]
        0x0000264e:    70d3        .p      STRB     r3,[r2,#3]
        0x00002650:    4a0c        .J      LDR      r2,[pc,#48] ; [0x2684] = 0x50008020
        0x00002652:    2304        .#      MOVS     r3,#4
        0x00002654:    60d3        .`      STR      r3,[r2,#0xc]
        0x00002656:    4c0c        .L      LDR      r4,[pc,#48] ; [0x2688] = 0x20000188
        0x00002658:    7121        !q      STRB     r1,[r4,#4]
        0x0000265a:    490c        .I      LDR      r1,[pc,#48] ; [0x268c] = 0x200001f5
        0x0000265c:    700b        .p      STRB     r3,[r1,#0]
        0x0000265e:    6811        .h      LDR      r1,[r2,#0]
        0x00002660:    4301        .C      ORRS     r1,r1,r0
        0x00002662:    6011        .`      STR      r1,[r2,#0]
        0x00002664:    b001        ..      ADD      sp,sp,#4
        0x00002666:    bdf0        ..      POP      {r4-r7,pc}
    $d
    __arm_cp.26_2
        0x00002668:    200001f6    ...     DCD    536871414
    __arm_cp.26_3
        0x0000266c:    200001f4    ...     DCD    536871412
    __arm_cp.26_4
        0x00002670:    20000183    ...     DCD    536871299
    __arm_cp.26_5
        0x00002674:    20000185    ...     DCD    536871301
    __arm_cp.26_6
        0x00002678:    4027003c    <.'@    DCD    1076297788
    __arm_cp.26_7
        0x0000267c:    20000190    ...     DCD    536871312
    __arm_cp.26_8
        0x00002680:    200000b4    ...     DCD    536871092
    __arm_cp.26_9
        0x00002684:    50008020     ..P    DCD    1342210080
    __arm_cp.26_10
        0x00002688:    20000188    ...     DCD    536871304
    __arm_cp.26_11
        0x0000268c:    200001f5    ...     DCD    536871413
    __arm_cp.26_12
        0x00002690:    20000018    ...     DCD    536870936
    __arm_cp.26_13
        0x00002694:    20000008    ...     DCD    536870920
    __arm_cp.26_14
        0x00002698:    2000001c    ...     DCD    536870940
    __arm_cp.26_15
        0x0000269c:    00003890    .8..    DCD    14480
    __arm_cp.26_16
        0x000026a0:    000039b0    .9..    DCD    14768
    __arm_cp.26_17
        0x000026a4:    00003ad0    .:..    DCD    15056
    __arm_cp.26_18
        0x000026a8:    200000b0    ...     DCD    536871088
    __arm_cp.26_19
        0x000026ac:    20000060    `..     DCD    536871008
    $t
    Trigger_update_micro_fig
        0x000026b0:    4803        .H      LDR      r0,[pc,#12] ; [0x26c0] = 0x200001f7
        0x000026b2:    7800        .x      LDRB     r0,[r0,#0]
        0x000026b4:    2801        .(      CMP      r0,#1
        0x000026b6:    d102        ..      BNE      0x26be ; Trigger_update_micro_fig + 14
        0x000026b8:    4802        .H      LDR      r0,[pc,#8] ; [0x26c4] = 0x200001f8
        0x000026ba:    2101        .!      MOVS     r1,#1
        0x000026bc:    7001        .p      STRB     r1,[r0,#0]
        0x000026be:    4770        pG      BX       lr
    $d
    __arm_cp.27_0
        0x000026c0:    200001f7    ...     DCD    536871415
    __arm_cp.27_1
        0x000026c4:    200001f8    ...     DCD    536871416
    $t
    UUART_Open
        0x000026c8:    b5f0        ..      PUSH     {r4-r7,lr}
        0x000026ca:    b089        ..      SUB      sp,sp,#0x24
        0x000026cc:    460d        .F      MOV      r5,r1
        0x000026ce:    9003        ..      STR      r0,[sp,#0xc]
        0x000026d0:    f7fdfea2    ....    BL       CLK_GetPCLKFreq ; 0x418
        0x000026d4:    4607        .F      MOV      r7,r0
        0x000026d6:    4629        )F      MOV      r1,r5
        0x000026d8:    f7fdfd54    ..T.    BL       __aeabi_uidiv ; 0x184
        0x000026dc:    4604        .F      MOV      r4,r0
        0x000026de:    4638        8F      MOV      r0,r7
        0x000026e0:    4621        !F      MOV      r1,r4
        0x000026e2:    f7fdfd4f    ..O.    BL       __aeabi_uidiv ; 0x184
        0x000026e6:    1b40        @.      SUBS     r0,r0,r5
        0x000026e8:    9008        ..      STR      r0,[sp,#0x20]
        0x000026ea:    1c66        f.      ADDS     r6,r4,#1
        0x000026ec:    9702        ..      STR      r7,[sp,#8]
        0x000026ee:    4638        8F      MOV      r0,r7
        0x000026f0:    4631        1F      MOV      r1,r6
        0x000026f2:    f7fdfd47    ..G.    BL       __aeabi_uidiv ; 0x184
        0x000026f6:    1a28        (.      SUBS     r0,r5,r0
        0x000026f8:    9908        ..      LDR      r1,[sp,#0x20]
        0x000026fa:    4281        .B      CMP      r1,r0
        0x000026fc:    d300        ..      BCC      0x2700 ; UUART_Open + 56
        0x000026fe:    4634        4F      MOV      r4,r6
        0x00002700:    2701        .'      MOVS     r7,#1
        0x00002702:    03b8        ..      LSLS     r0,r7,#14
        0x00002704:    2600        .&      MOVS     r6,#0
        0x00002706:    4601        .F      MOV      r1,r0
        0x00002708:    1c76        v.      ADDS     r6,r6,#1
        0x0000270a:    2e04        ..      CMP      r6,#4
        0x0000270c:    d803        ..      BHI      0x2716 ; UUART_Open + 78
        0x0000270e:    180a        ..      ADDS     r2,r1,r0
        0x00002710:    428c        .B      CMP      r4,r1
        0x00002712:    4611        .F      MOV      r1,r2
        0x00002714:    d8f8        ..      BHI      0x2708 ; UUART_Open + 64
        0x00002716:    2e04        ..      CMP      r6,#4
        0x00002718:    d300        ..      BCC      0x271c ; UUART_Open + 84
        0x0000271a:    2604        .&      MOVS     r6,#4
        0x0000271c:    4620         F      MOV      r0,r4
        0x0000271e:    4631        1F      MOV      r1,r6
        0x00002720:    f7fdfd30    ..0.    BL       __aeabi_uidiv ; 0x184
        0x00002724:    2103        .!      MOVS     r1,#3
        0x00002726:    02cd        ..      LSLS     r5,r1,#11
        0x00002728:    9701        ..      STR      r7,[sp,#4]
        0x0000272a:    02ba        ..      LSLS     r2,r7,#10
        0x0000272c:    21ff        .!      MOVS     r1,#0xff
        0x0000272e:    43cc        .C      MVNS     r4,r1
        0x00002730:    9400        ..      STR      r4,[sp,#0]
        0x00002732:    34ff        .4      ADDS     r4,r4,#0xff
        0x00002734:    9407        ..      STR      r4,[sp,#0x1c]
        0x00002736:    2706        .'      MOVS     r7,#6
        0x00002738:    2100        .!      MOVS     r1,#0
        0x0000273a:    9105        ..      STR      r1,[sp,#0x14]
        0x0000273c:    9104        ..      STR      r1,[sp,#0x10]
        0x0000273e:    9006        ..      STR      r0,[sp,#0x18]
        0x00002740:    9208        ..      STR      r2,[sp,#0x20]
        0x00002742:    e00a        ..      B        0x275a ; UUART_Open + 146
        0x00002744:    9004        ..      STR      r0,[sp,#0x10]
        0x00002746:    2b00        .+      CMP      r3,#0
        0x00002748:    9307        ..      STR      r3,[sp,#0x1c]
        0x0000274a:    9705        ..      STR      r7,[sp,#0x14]
        0x0000274c:    d021        !.      BEQ      0x2792 ; UUART_Open + 202
        0x0000274e:    9a08        ..      LDR      r2,[sp,#0x20]
        0x00002750:    18ad        ..      ADDS     r5,r5,r2
        0x00002752:    1c7f        ..      ADDS     r7,r7,#1
        0x00002754:    2f11        ./      CMP      r7,#0x11
        0x00002756:    9806        ..      LDR      r0,[sp,#0x18]
        0x00002758:    d01c        ..      BEQ      0x2794 ; UUART_Open + 204
        0x0000275a:    4604        .F      MOV      r4,r0
        0x0000275c:    4639        9F      MOV      r1,r7
        0x0000275e:    f7fdfd11    ....    BL       __aeabi_uidiv ; 0x184
        0x00002762:    9b08        ..      LDR      r3,[sp,#0x20]
        0x00002764:    4298        .B      CMP      r0,r3
        0x00002766:    d903        ..      BLS      0x2770 ; UUART_Open + 168
        0x00002768:    1b61        a.      SUBS     r1,r4,r5
        0x0000276a:    1c4a        J.      ADDS     r2,r1,#1
        0x0000276c:    4618        .F      MOV      r0,r3
        0x0000276e:    e005        ..      B        0x277c ; UUART_Open + 180
        0x00002770:    4639        9F      MOV      r1,r7
        0x00002772:    4341        AC      MULS     r1,r0,r1
        0x00002774:    1a61        a.      SUBS     r1,r4,r1
        0x00002776:    1c42        B.      ADDS     r2,r0,#1
        0x00002778:    437a        zC      MULS     r2,r7,r2
        0x0000277a:    1b12        ..      SUBS     r2,r2,r4
        0x0000277c:    4291        .B      CMP      r1,r2
        0x0000277e:    460b        .F      MOV      r3,r1
        0x00002780:    d300        ..      BCC      0x2784 ; UUART_Open + 188
        0x00002782:    4613        .F      MOV      r3,r2
        0x00002784:    9c07        ..      LDR      r4,[sp,#0x1c]
        0x00002786:    42a3        .B      CMP      r3,r4
        0x00002788:    d2e1        ..      BCS      0x274e ; UUART_Open + 134
        0x0000278a:    4291        .B      CMP      r1,r2
        0x0000278c:    d3da        ..      BCC      0x2744 ; UUART_Open + 124
        0x0000278e:    1c40        @.      ADDS     r0,r0,#1
        0x00002790:    e7d8        ..      B        0x2744 ; UUART_Open + 124
        0x00002792:    9705        ..      STR      r7,[sp,#0x14]
        0x00002794:    9b03        ..      LDR      r3,[sp,#0xc]
        0x00002796:    6818        .h      LDR      r0,[r3,#0]
        0x00002798:    2107        .!      MOVS     r1,#7
        0x0000279a:    4388        .C      BICS     r0,r0,r1
        0x0000279c:    6018        .`      STR      r0,[r3,#0]
        0x0000279e:    2002        .       MOVS     r0,#2
        0x000027a0:    6018        .`      STR      r0,[r3,#0]
        0x000027a2:    4811        .H      LDR      r0,[pc,#68] ; [0x27e8] = 0x801
        0x000027a4:    62d8        .b      STR      r0,[r3,#0x2c]
        0x000027a6:    2010        .       MOVS     r0,#0x10
        0x000027a8:    6118        .a      STR      r0,[r3,#0x10]
        0x000027aa:    0230        0.      LSLS     r0,r6,#8
        0x000027ac:    9900        ..      LDR      r1,[sp,#0]
        0x000027ae:    1840        @.      ADDS     r0,r0,r1
        0x000027b0:    9c04        ..      LDR      r4,[sp,#0x10]
        0x000027b2:    0421        !.      LSLS     r1,r4,#16
        0x000027b4:    4a0d        .J      LDR      r2,[pc,#52] ; [0x27ec] = 0xffff0000
        0x000027b6:    1889        ..      ADDS     r1,r1,r2
        0x000027b8:    4301        .C      ORRS     r1,r1,r0
        0x000027ba:    9d05        ..      LDR      r5,[sp,#0x14]
        0x000027bc:    02a8        ..      LSLS     r0,r5,#10
        0x000027be:    4a0c        .J      LDR      r2,[pc,#48] ; [0x27f0] = 0xfffffc00
        0x000027c0:    1880        ..      ADDS     r0,r0,r2
        0x000027c2:    4308        .C      ORRS     r0,r0,r1
        0x000027c4:    6098        .`      STR      r0,[r3,#8]
        0x000027c6:    9801        ..      LDR      r0,[sp,#4]
        0x000027c8:    07c0        ..      LSLS     r0,r0,#31
        0x000027ca:    6dd9        .m      LDR      r1,[r3,#0x5c]
        0x000027cc:    4301        .C      ORRS     r1,r1,r0
        0x000027ce:    65d9        .e      STR      r1,[r3,#0x5c]
        0x000027d0:    9802        ..      LDR      r0,[sp,#8]
        0x000027d2:    4631        1F      MOV      r1,r6
        0x000027d4:    f7fdfcd6    ....    BL       __aeabi_uidiv ; 0x184
        0x000027d8:    4629        )F      MOV      r1,r5
        0x000027da:    f7fdfcd3    ....    BL       __aeabi_uidiv ; 0x184
        0x000027de:    4621        !F      MOV      r1,r4
        0x000027e0:    f7fdfcd0    ....    BL       __aeabi_uidiv ; 0x184
        0x000027e4:    b009        ..      ADD      sp,sp,#0x24
        0x000027e6:    bdf0        ..      POP      {r4-r7,pc}
    $d
    __arm_cp.5_0
        0x000027e8:    00000801    ....    DCD    2049
    __arm_cp.5_1
        0x000027ec:    ffff0000    ....    DCD    4294901760
    __arm_cp.5_2
        0x000027f0:    fffffc00    ....    DCD    4294966272
    $t
    Vdq_to_SVPWM_2R
        0x000027f4:    b5f0        ..      PUSH     {r4-r7,lr}
        0x000027f6:    b08f        ..      SUB      sp,sp,#0x3c
        0x000027f8:    461d        .F      MOV      r5,r3
        0x000027fa:    4616        .F      MOV      r6,r2
        0x000027fc:    910a        ..      STR      r1,[sp,#0x28]
        0x000027fe:    4604        .F      MOV      r4,r0
        0x00002800:    3454        T4      ADDS     r4,r4,#0x54
        0x00002802:    2102        .!      MOVS     r1,#2
        0x00002804:    5e61        a^      LDRSH    r1,[r4,r1]
        0x00002806:    9107        ..      STR      r1,[sp,#0x1c]
        0x00002808:    2154        T!      MOVS     r1,#0x54
        0x0000280a:    5e41        A^      LDRSH    r1,[r0,r1]
        0x0000280c:    aa0b        ..      ADD      r2,sp,#0x2c
        0x0000280e:    9209        ..      STR      r2,[sp,#0x24]
        0x00002810:    9205        ..      STR      r2,[sp,#0x14]
        0x00002812:    aa0c        ..      ADD      r2,sp,#0x30
        0x00002814:    9208        ..      STR      r2,[sp,#0x20]
        0x00002816:    9204        ..      STR      r2,[sp,#0x10]
        0x00002818:    af0d        ..      ADD      r7,sp,#0x34
        0x0000281a:    9703        ..      STR      r7,[sp,#0xc]
        0x0000281c:    aa0e        ..      ADD      r2,sp,#0x38
        0x0000281e:    9202        ..      STR      r2,[sp,#8]
        0x00002820:    9001        ..      STR      r0,[sp,#4]
        0x00002822:    9600        ..      STR      r6,[sp,#0]
        0x00002824:    9a14        ..      LDR      r2,[sp,#0x50]
        0x00002826:    9b15        ..      LDR      r3,[sp,#0x54]
        0x00002828:    4608        .F      MOV      r0,r1
        0x0000282a:    9907        ..      LDR      r1,[sp,#0x1c]
        0x0000282c:    f000fbf8    ....    BL       SVPWM_2R ; 0x3020
        0x00002830:    8838        8.      LDRH     r0,[r7,#0]
        0x00002832:    1a30        0.      SUBS     r0,r6,r0
        0x00002834:    42a8        .B      CMP      r0,r5
        0x00002836:    d300        ..      BCC      0x283a ; Vdq_to_SVPWM_2R + 70
        0x00002838:    4628        (F      MOV      r0,r5
        0x0000283a:    9b0a        ..      LDR      r3,[sp,#0x28]
        0x0000283c:    6258        Xb      STR      r0,[r3,#0x24]
        0x0000283e:    9908        ..      LDR      r1,[sp,#0x20]
        0x00002840:    8809        ..      LDRH     r1,[r1,#0]
        0x00002842:    1a71        q.      SUBS     r1,r6,r1
        0x00002844:    42a9        .B      CMP      r1,r5
        0x00002846:    d300        ..      BCC      0x284a ; Vdq_to_SVPWM_2R + 86
        0x00002848:    4629        )F      MOV      r1,r5
        0x0000284a:    62d9        .b      STR      r1,[r3,#0x2c]
        0x0000284c:    9a09        ..      LDR      r2,[sp,#0x24]
        0x0000284e:    8812        ..      LDRH     r2,[r2,#0]
        0x00002850:    1ab2        ..      SUBS     r2,r6,r2
        0x00002852:    42aa        .B      CMP      r2,r5
        0x00002854:    d300        ..      BCC      0x2858 ; Vdq_to_SVPWM_2R + 100
        0x00002856:    462a        *F      MOV      r2,r5
        0x00002858:    8262        b.      STRH     r2,[r4,#0x12]
        0x0000285a:    8221        !.      STRH     r1,[r4,#0x10]
        0x0000285c:    81e0        ..      STRH     r0,[r4,#0xe]
        0x0000285e:    635a        Zc      STR      r2,[r3,#0x34]
        0x00002860:    b00f        ..      ADD      sp,sp,#0x3c
        0x00002862:    bdf0        ..      POP      {r4-r7,pc}
    _Iuvw_to_Idq
        0x00002864:    b570        p.      PUSH     {r4-r6,lr}
        0x00002866:    231c        .#      MOVS     r3,#0x1c
        0x00002868:    5ec3        .^      LDRSH    r3,[r0,r3]
        0x0000286a:    8443        C.      STRH     r3,[r0,#0x22]
        0x0000286c:    2420         $      MOVS     r4,#0x20
        0x0000286e:    5f04        ._      LDRSH    r4,[r0,r4]
        0x00002870:    251e        .%      MOVS     r5,#0x1e
        0x00002872:    5f45        E_      LDRSH    r5,[r0,r5]
        0x00002874:    1b2c        ,.      SUBS     r4,r5,r4
        0x00002876:    4d08        .M      LDR      r5,[pc,#32] ; [0x2898] = 0x49e6
        0x00002878:    4365        eC      MULS     r5,r4,r5
        0x0000287a:    13ec        ..      ASRS     r4,r5,#15
        0x0000287c:    8484        ..      STRH     r4,[r0,#0x24]
        0x0000287e:    4615        .F      MOV      r5,r2
        0x00002880:    4365        eC      MULS     r5,r4,r5
        0x00002882:    461e        .F      MOV      r6,r3
        0x00002884:    434e        NC      MULS     r6,r1,r6
        0x00002886:    1bad        ..      SUBS     r5,r5,r6
        0x00002888:    0bed        ..      LSRS     r5,r5,#15
        0x0000288a:    8505        ..      STRH     r5,[r0,#0x28]
        0x0000288c:    4361        aC      MULS     r1,r4,r1
        0x0000288e:    4353        SC      MULS     r3,r2,r3
        0x00002890:    18c9        ..      ADDS     r1,r1,r3
        0x00002892:    0bc9        ..      LSRS     r1,r1,#15
        0x00002894:    84c1        ..      STRH     r1,[r0,#0x26]
        0x00002896:    bd70        p.      POP      {r4-r6,pc}
    $d
    __arm_cp.3_0
        0x00002898:    000049e6    .I..    DCD    18918
    $t
    cmd_speed_slope_with_hall
        0x0000289c:    b5f0        ..      PUSH     {r4-r7,lr}
        0x0000289e:    b081        ..      SUB      sp,sp,#4
        0x000028a0:    4602        .F      MOV      r2,r0
        0x000028a2:    3268        h2      ADDS     r2,r2,#0x68
        0x000028a4:    7a91        .z      LDRB     r1,[r2,#0xa]
        0x000028a6:    2900        .)      CMP      r1,#0
        0x000028a8:    d043        C.      BEQ      0x2932 ; cmd_speed_slope_with_hall + 150
        0x000028aa:    4601        .F      MOV      r1,r0
        0x000028ac:    31a0        .1      ADDS     r1,r1,#0xa0
        0x000028ae:    2306        .#      MOVS     r3,#6
        0x000028b0:    5ec4        .^      LDRSH    r4,[r0,r3]
        0x000028b2:    8b4b        K.      LDRH     r3,[r1,#0x1a]
        0x000028b4:    8900        ..      LDRH     r0,[r0,#8]
        0x000028b6:    7d0d        .}      LDRB     r5,[r1,#0x14]
        0x000028b8:    2d00        .-      CMP      r5,#0
        0x000028ba:    d00c        ..      BEQ      0x28d6 ; cmd_speed_slope_with_hall + 58
        0x000028bc:    9400        ..      STR      r4,[sp,#0]
        0x000028be:    2500        .%      MOVS     r5,#0
        0x000028c0:    5f56        V_      LDRSH    r6,[r2,r5]
        0x000028c2:    2702        .'      MOVS     r7,#2
        0x000028c4:    5fd7        ._      LDRSH    r7,[r2,r7]
        0x000028c6:    1a3c        <.      SUBS     r4,r7,r0
        0x000028c8:    42b4        .B      CMP      r4,r6
        0x000028ca:    dc12        ..      BGT      0x28f2 ; cmd_speed_slope_with_hall + 86
        0x000028cc:    183c        <.      ADDS     r4,r7,r0
        0x000028ce:    42b4        .B      CMP      r4,r6
        0x000028d0:    db0f        ..      BLT      0x28f2 ; cmd_speed_slope_with_hall + 86
        0x000028d2:    8017        ..      STRH     r7,[r2,#0]
        0x000028d4:    e02c        ,.      B        0x2930 ; cmd_speed_slope_with_hall + 148
        0x000028d6:    2500        .%      MOVS     r5,#0
        0x000028d8:    9500        ..      STR      r5,[sp,#0]
        0x000028da:    5f57        W_      LDRSH    r7,[r2,r5]
        0x000028dc:    2602        .&      MOVS     r6,#2
        0x000028de:    5f95        ._      LDRSH    r5,[r2,r6]
        0x000028e0:    680e        .h      LDR      r6,[r1,#0]
        0x000028e2:    42bd        .B      CMP      r5,r7
        0x000028e4:    dd0e        ..      BLE      0x2904 ; cmd_speed_slope_with_hall + 104
        0x000028e6:    1c5b        [.      ADDS     r3,r3,#1
        0x000028e8:    b29d        ..      UXTH     r5,r3
        0x000028ea:    42a5        .B      CMP      r5,r4
        0x000028ec:    db15        ..      BLT      0x291a ; cmd_speed_slope_with_hall + 126
        0x000028ee:    1838        8.      ADDS     r0,r7,r0
        0x000028f0:    e00e        ..      B        0x2910 ; cmd_speed_slope_with_hall + 116
        0x000028f2:    42b7        .B      CMP      r7,r6
        0x000028f4:    dd13        ..      BLE      0x291e ; cmd_speed_slope_with_hall + 130
        0x000028f6:    1c5b        [.      ADDS     r3,r3,#1
        0x000028f8:    b29c        ..      UXTH     r4,r3
        0x000028fa:    9f00        ..      LDR      r7,[sp,#0]
        0x000028fc:    42bc        .B      CMP      r4,r7
        0x000028fe:    db17        ..      BLT      0x2930 ; cmd_speed_slope_with_hall + 148
        0x00002900:    1830        0.      ADDS     r0,r6,r0
        0x00002902:    e013        ..      B        0x292c ; cmd_speed_slope_with_hall + 144
        0x00002904:    da09        ..      BGE      0x291a ; cmd_speed_slope_with_hall + 126
        0x00002906:    1c5b        [.      ADDS     r3,r3,#1
        0x00002908:    b29d        ..      UXTH     r5,r3
        0x0000290a:    42a5        .B      CMP      r5,r4
        0x0000290c:    db05        ..      BLT      0x291a ; cmd_speed_slope_with_hall + 126
        0x0000290e:    1a38        8.      SUBS     r0,r7,r0
        0x00002910:    8010        ..      STRH     r0,[r2,#0]
        0x00002912:    b200        ..      SXTH     r0,r0
        0x00002914:    688e        .h      LDR      r6,[r1,#8]
        0x00002916:    4346        FC      MULS     r6,r0,r6
        0x00002918:    9b00        ..      LDR      r3,[sp,#0]
        0x0000291a:    600e        .`      STR      r6,[r1,#0]
        0x0000291c:    e008        ..      B        0x2930 ; cmd_speed_slope_with_hall + 148
        0x0000291e:    da07        ..      BGE      0x2930 ; cmd_speed_slope_with_hall + 148
        0x00002920:    1c5b        [.      ADDS     r3,r3,#1
        0x00002922:    b29c        ..      UXTH     r4,r3
        0x00002924:    9f00        ..      LDR      r7,[sp,#0]
        0x00002926:    42bc        .B      CMP      r4,r7
        0x00002928:    db02        ..      BLT      0x2930 ; cmd_speed_slope_with_hall + 148
        0x0000292a:    1a30        0.      SUBS     r0,r6,r0
        0x0000292c:    8010        ..      STRH     r0,[r2,#0]
        0x0000292e:    462b        +F      MOV      r3,r5
        0x00002930:    834b        K.      STRH     r3,[r1,#0x1a]
        0x00002932:    b001        ..      ADD      sp,sp,#4
        0x00002934:    bdf0        ..      POP      {r4-r7,pc}
        0x00002936:    0000        ..      MOVS     r0,r0
    data_flash_is_empty
        0x00002938:    b5f0        ..      PUSH     {r4-r7,lr}
        0x0000293a:    b081        ..      SUB      sp,sp,#4
        0x0000293c:    492a        *I      LDR      r1,[pc,#168] ; [0x29e8] = 0x50000100
        0x0000293e:    2059        Y       MOVS     r0,#0x59
        0x00002940:    6008        .`      STR      r0,[r1,#0]
        0x00002942:    2016        .       MOVS     r0,#0x16
        0x00002944:    6008        .`      STR      r0,[r1,#0]
        0x00002946:    2088        .       MOVS     r0,#0x88
        0x00002948:    6008        .`      STR      r0,[r1,#0]
        0x0000294a:    6808        .h      LDR      r0,[r1,#0]
        0x0000294c:    2800        .(      CMP      r0,#0
        0x0000294e:    d0f6        ..      BEQ      0x293e ; data_flash_is_empty + 6
        0x00002950:    4926        &I      LDR      r1,[pc,#152] ; [0x29ec] = 0x5000c000
        0x00002952:    6808        .h      LDR      r0,[r1,#0]
        0x00002954:    2208        ."      MOVS     r2,#8
        0x00002956:    9200        ..      STR      r2,[sp,#0]
        0x00002958:    4310        .C      ORRS     r0,r0,r2
        0x0000295a:    6008        .`      STR      r0,[r1,#0]
        0x0000295c:    207f        .       MOVS     r0,#0x7f
        0x0000295e:    0245        E.      LSLS     r5,r0,#9
        0x00002960:    2003        .       MOVS     r0,#3
        0x00002962:    43c4        .C      MVNS     r4,r0
        0x00002964:    4626        &F      MOV      r6,r4
        0x00002966:    3e08        .>      SUBS     r6,r6,#8
        0x00002968:    2700        .'      MOVS     r7,#0
        0x0000296a:    e001        ..      B        0x2970 ; data_flash_is_empty + 56
        0x0000296c:    1d36        6.      ADDS     r6,r6,#4
        0x0000296e:    d007        ..      BEQ      0x2980 ; data_flash_is_empty + 72
        0x00002970:    1970        p.      ADDS     r0,r6,r5
        0x00002972:    300c        .0      ADDS     r0,r0,#0xc
        0x00002974:    f7fef8ae    ....    BL       FMC_Read ; 0xad4
        0x00002978:    1c40        @.      ADDS     r0,r0,#1
        0x0000297a:    d1f7        ..      BNE      0x296c ; data_flash_is_empty + 52
        0x0000297c:    1c7f        ..      ADDS     r7,r7,#1
        0x0000297e:    e7f5        ..      B        0x296c ; data_flash_is_empty + 52
        0x00002980:    4626        &F      MOV      r6,r4
        0x00002982:    e001        ..      B        0x2988 ; data_flash_is_empty + 80
        0x00002984:    2e00        ..      CMP      r6,#0
        0x00002986:    d108        ..      BNE      0x299a ; data_flash_is_empty + 98
        0x00002988:    1d36        6.      ADDS     r6,r6,#4
        0x0000298a:    19a8        ..      ADDS     r0,r5,r6
        0x0000298c:    3050        P0      ADDS     r0,r0,#0x50
        0x0000298e:    f7fef8a1    ....    BL       FMC_Read ; 0xad4
        0x00002992:    1c40        @.      ADDS     r0,r0,#1
        0x00002994:    d1f6        ..      BNE      0x2984 ; data_flash_is_empty + 76
        0x00002996:    1c7f        ..      ADDS     r7,r7,#1
        0x00002998:    e7f4        ..      B        0x2984 ; data_flash_is_empty + 76
        0x0000299a:    4626        &F      MOV      r6,r4
        0x0000299c:    e001        ..      B        0x29a2 ; data_flash_is_empty + 106
        0x0000299e:    2e00        ..      CMP      r6,#0
        0x000029a0:    d10a        ..      BNE      0x29b8 ; data_flash_is_empty + 128
        0x000029a2:    1d36        6.      ADDS     r6,r6,#4
        0x000029a4:    19a8        ..      ADDS     r0,r5,r6
        0x000029a6:    30a0        .0      ADDS     r0,r0,#0xa0
        0x000029a8:    f7fef894    ....    BL       FMC_Read ; 0xad4
        0x000029ac:    1c40        @.      ADDS     r0,r0,#1
        0x000029ae:    d1f6        ..      BNE      0x299e ; data_flash_is_empty + 102
        0x000029b0:    1c7f        ..      ADDS     r7,r7,#1
        0x000029b2:    e7f4        ..      B        0x299e ; data_flash_is_empty + 102
        0x000029b4:    2c00        .,      CMP      r4,#0
        0x000029b6:    d108        ..      BNE      0x29ca ; data_flash_is_empty + 146
        0x000029b8:    1d24        $.      ADDS     r4,r4,#4
        0x000029ba:    1928        (.      ADDS     r0,r5,r4
        0x000029bc:    30f0        .0      ADDS     r0,r0,#0xf0
        0x000029be:    f7fef889    ....    BL       FMC_Read ; 0xad4
        0x000029c2:    1c40        @.      ADDS     r0,r0,#1
        0x000029c4:    d1f6        ..      BNE      0x29b4 ; data_flash_is_empty + 124
        0x000029c6:    1c7f        ..      ADDS     r7,r7,#1
        0x000029c8:    e7f4        ..      B        0x29b4 ; data_flash_is_empty + 124
        0x000029ca:    9800        ..      LDR      r0,[sp,#0]
        0x000029cc:    43c0        .C      MVNS     r0,r0
        0x000029ce:    4a07        .J      LDR      r2,[pc,#28] ; [0x29ec] = 0x5000c000
        0x000029d0:    6811        .h      LDR      r1,[r2,#0]
        0x000029d2:    4001        .@      ANDS     r1,r1,r0
        0x000029d4:    6011        .`      STR      r1,[r2,#0]
        0x000029d6:    2000        .       MOVS     r0,#0
        0x000029d8:    4903        .I      LDR      r1,[pc,#12] ; [0x29e8] = 0x50000100
        0x000029da:    6008        .`      STR      r0,[r1,#0]
        0x000029dc:    b2f9        ..      UXTB     r1,r7
        0x000029de:    3909        .9      SUBS     r1,r1,#9
        0x000029e0:    4248        HB      RSBS     r0,r1,#0
        0x000029e2:    4148        HA      ADCS     r0,r0,r1
        0x000029e4:    b001        ..      ADD      sp,sp,#4
        0x000029e6:    bdf0        ..      POP      {r4-r7,pc}
    $d
    __arm_cp.19_0
        0x000029e8:    50000100    ...P    DCD    1342177536
    __arm_cp.19_1
        0x000029ec:    5000c000    ...P    DCD    1342226432
    $t
    delay_Xmsec
        0x000029f0:    4770        pG      BX       lr
        0x000029f2:    0000        ..      MOVS     r0,r0
    initial_CMD
        0x000029f4:    b5f0        ..      PUSH     {r4-r7,lr}
        0x000029f6:    b081        ..      SUB      sp,sp,#4
        0x000029f8:    9200        ..      STR      r2,[sp,#0]
        0x000029fa:    4b55        UK      LDR      r3,[pc,#340] ; [0x2b50] = 0x4027003c
        0x000029fc:    681c        .h      LDR      r4,[r3,#0]
        0x000029fe:    05e4        ..      LSLS     r4,r4,#23
        0x00002a00:    d5fc        ..      BPL      0x29fc ; initial_CMD + 8
        0x00002a02:    4b54        TK      LDR      r3,[pc,#336] ; [0x2b54] = 0x20000190
        0x00002a04:    2461        a$      MOVS     r4,#0x61
        0x00002a06:    701c        .p      STRB     r4,[r3,#0]
        0x00002a08:    244c        L$      MOVS     r4,#0x4c
        0x00002a0a:    4344        DC      MULS     r4,r0,r4
        0x00002a0c:    1909        ..      ADDS     r1,r1,r4
        0x00002a0e:    2448        H$      MOVS     r4,#0x48
        0x00002a10:    5d0c        .]      LDRB     r4,[r1,r4]
        0x00002a12:    705c        \p      STRB     r4,[r3,#1]
        0x00002a14:    273b        ;'      MOVS     r7,#0x3b
        0x00002a16:    5dcc        .]      LDRB     r4,[r1,r7]
        0x00002a18:    709c        .p      STRB     r4,[r3,#2]
        0x00002a1a:    263a        :&      MOVS     r6,#0x3a
        0x00002a1c:    5d8c        .]      LDRB     r4,[r1,r6]
        0x00002a1e:    70dc        .p      STRB     r4,[r3,#3]
        0x00002a20:    2539        9%      MOVS     r5,#0x39
        0x00002a22:    5d4c        L]      LDRB     r4,[r1,r5]
        0x00002a24:    711c        .q      STRB     r4,[r3,#4]
        0x00002a26:    2238        8"      MOVS     r2,#0x38
        0x00002a28:    5c8c        .\      LDRB     r4,[r1,r2]
        0x00002a2a:    715c        \q      STRB     r4,[r3,#5]
        0x00002a2c:    243f        ?$      MOVS     r4,#0x3f
        0x00002a2e:    5d0c        .]      LDRB     r4,[r1,r4]
        0x00002a30:    719c        .q      STRB     r4,[r3,#6]
        0x00002a32:    243e        >$      MOVS     r4,#0x3e
        0x00002a34:    5d0c        .]      LDRB     r4,[r1,r4]
        0x00002a36:    71dc        .q      STRB     r4,[r3,#7]
        0x00002a38:    243d        =$      MOVS     r4,#0x3d
        0x00002a3a:    5d0c        .]      LDRB     r4,[r1,r4]
        0x00002a3c:    721c        .r      STRB     r4,[r3,#8]
        0x00002a3e:    243c        <$      MOVS     r4,#0x3c
        0x00002a40:    5d0c        .]      LDRB     r4,[r1,r4]
        0x00002a42:    725c        \r      STRB     r4,[r3,#9]
        0x00002a44:    2443        C$      MOVS     r4,#0x43
        0x00002a46:    5d0c        .]      LDRB     r4,[r1,r4]
        0x00002a48:    729c        .r      STRB     r4,[r3,#0xa]
        0x00002a4a:    2442        B$      MOVS     r4,#0x42
        0x00002a4c:    5d0c        .]      LDRB     r4,[r1,r4]
        0x00002a4e:    72dc        .r      STRB     r4,[r3,#0xb]
        0x00002a50:    2441        A$      MOVS     r4,#0x41
        0x00002a52:    5d0c        .]      LDRB     r4,[r1,r4]
        0x00002a54:    731c        .s      STRB     r4,[r3,#0xc]
        0x00002a56:    2440        @$      MOVS     r4,#0x40
        0x00002a58:    5d0c        .]      LDRB     r4,[r1,r4]
        0x00002a5a:    735c        \s      STRB     r4,[r3,#0xd]
        0x00002a5c:    2447        G$      MOVS     r4,#0x47
        0x00002a5e:    5d0c        .]      LDRB     r4,[r1,r4]
        0x00002a60:    739c        .s      STRB     r4,[r3,#0xe]
        0x00002a62:    2446        F$      MOVS     r4,#0x46
        0x00002a64:    5d0c        .]      LDRB     r4,[r1,r4]
        0x00002a66:    73dc        .s      STRB     r4,[r3,#0xf]
        0x00002a68:    2445        E$      MOVS     r4,#0x45
        0x00002a6a:    5d0c        .]      LDRB     r4,[r1,r4]
        0x00002a6c:    741c        .t      STRB     r4,[r3,#0x10]
        0x00002a6e:    2444        D$      MOVS     r4,#0x44
        0x00002a70:    5d0c        .]      LDRB     r4,[r1,r4]
        0x00002a72:    745c        \t      STRB     r4,[r3,#0x11]
        0x00002a74:    5dcc        .]      LDRB     r4,[r1,r7]
        0x00002a76:    6b4f        Ok      LDR      r7,[r1,#0x34]
        0x00002a78:    78ff        .x      LDRB     r7,[r7,#3]
        0x00002a7a:    4027        '@      ANDS     r7,r7,r4
        0x00002a7c:    749f        .t      STRB     r7,[r3,#0x12]
        0x00002a7e:    5d8c        .]      LDRB     r4,[r1,r6]
        0x00002a80:    6b4e        Nk      LDR      r6,[r1,#0x34]
        0x00002a82:    78b6        .x      LDRB     r6,[r6,#2]
        0x00002a84:    4026        &@      ANDS     r6,r6,r4
        0x00002a86:    74de        .t      STRB     r6,[r3,#0x13]
        0x00002a88:    5d4c        L]      LDRB     r4,[r1,r5]
        0x00002a8a:    6b4d        Mk      LDR      r5,[r1,#0x34]
        0x00002a8c:    786d        mx      LDRB     r5,[r5,#1]
        0x00002a8e:    4025        %@      ANDS     r5,r5,r4
        0x00002a90:    751d        .u      STRB     r5,[r3,#0x14]
        0x00002a92:    5c8a        .\      LDRB     r2,[r1,r2]
        0x00002a94:    6b49        Ik      LDR      r1,[r1,#0x34]
        0x00002a96:    7809        .x      LDRB     r1,[r1,#0]
        0x00002a98:    4011        .@      ANDS     r1,r1,r2
        0x00002a9a:    7559        Yu      STRB     r1,[r3,#0x15]
        0x00002a9c:    00c0        ..      LSLS     r0,r0,#3
        0x00002a9e:    9900        ..      LDR      r1,[sp,#0]
        0x00002aa0:    1808        ..      ADDS     r0,r1,r0
        0x00002aa2:    2100        .!      MOVS     r1,#0
        0x00002aa4:    7101        .q      STRB     r1,[r0,#4]
        0x00002aa6:    482d        -H      LDR      r0,[pc,#180] ; [0x2b5c] = 0x50008020
        0x00002aa8:    2116        .!      MOVS     r1,#0x16
        0x00002aaa:    60c1        .`      STR      r1,[r0,#0xc]
        0x00002aac:    4a2c        ,J      LDR      r2,[pc,#176] ; [0x2b60] = 0x200001f5
        0x00002aae:    7011        .p      STRB     r1,[r2,#0]
        0x00002ab0:    6801        .h      LDR      r1,[r0,#0]
        0x00002ab2:    2201        ."      MOVS     r2,#1
        0x00002ab4:    430a        .C      ORRS     r2,r2,r1
        0x00002ab6:    6002        .`      STR      r2,[r0,#0]
        0x00002ab8:    b001        ..      ADD      sp,sp,#4
        0x00002aba:    bdf0        ..      POP      {r4-r7,pc}
    initial_SYS
        0x00002abc:    b570        p.      PUSH     {r4-r6,lr}
        0x00002abe:    4924        $I      LDR      r1,[pc,#144] ; [0x2b50] = 0x4027003c
        0x00002ac0:    680a        .h      LDR      r2,[r1,#0]
        0x00002ac2:    05d2        ..      LSLS     r2,r2,#23
        0x00002ac4:    d5fc        ..      BPL      0x2ac0 ; initial_SYS + 4
        0x00002ac6:    4923        #I      LDR      r1,[pc,#140] ; [0x2b54] = 0x20000190
        0x00002ac8:    2260        `"      MOVS     r2,#0x60
        0x00002aca:    700a        .p      STRB     r2,[r1,#0]
        0x00002acc:    2248        H"      MOVS     r2,#0x48
        0x00002ace:    4342        BC      MULS     r2,r0,r2
        0x00002ad0:    4821        !H      LDR      r0,[pc,#132] ; [0x2b58] = 0x3c80
        0x00002ad2:    1880        ..      ADDS     r0,r0,r2
        0x00002ad4:    2240        @"      MOVS     r2,#0x40
        0x00002ad6:    5c82        .\      LDRB     r2,[r0,r2]
        0x00002ad8:    734a        Js      STRB     r2,[r1,#0xd]
        0x00002ada:    2241        A"      MOVS     r2,#0x41
        0x00002adc:    5c82        .\      LDRB     r2,[r0,r2]
        0x00002ade:    730a        .s      STRB     r2,[r1,#0xc]
        0x00002ae0:    2242        B"      MOVS     r2,#0x42
        0x00002ae2:    5c82        .\      LDRB     r2,[r0,r2]
        0x00002ae4:    72ca        .r      STRB     r2,[r1,#0xb]
        0x00002ae6:    2243        C"      MOVS     r2,#0x43
        0x00002ae8:    5c82        .\      LDRB     r2,[r0,r2]
        0x00002aea:    728a        .r      STRB     r2,[r1,#0xa]
        0x00002aec:    223c        <"      MOVS     r2,#0x3c
        0x00002aee:    5c82        .\      LDRB     r2,[r0,r2]
        0x00002af0:    724a        Jr      STRB     r2,[r1,#9]
        0x00002af2:    223d        ="      MOVS     r2,#0x3d
        0x00002af4:    5c82        .\      LDRB     r2,[r0,r2]
        0x00002af6:    720a        .r      STRB     r2,[r1,#8]
        0x00002af8:    223e        >"      MOVS     r2,#0x3e
        0x00002afa:    5c82        .\      LDRB     r2,[r0,r2]
        0x00002afc:    71ca        .q      STRB     r2,[r1,#7]
        0x00002afe:    223f        ?"      MOVS     r2,#0x3f
        0x00002b00:    5c82        .\      LDRB     r2,[r0,r2]
        0x00002b02:    718a        .q      STRB     r2,[r1,#6]
        0x00002b04:    2238        8"      MOVS     r2,#0x38
        0x00002b06:    5c82        .\      LDRB     r2,[r0,r2]
        0x00002b08:    714a        Jq      STRB     r2,[r1,#5]
        0x00002b0a:    2339        9#      MOVS     r3,#0x39
        0x00002b0c:    5cc3        .\      LDRB     r3,[r0,r3]
        0x00002b0e:    710b        .q      STRB     r3,[r1,#4]
        0x00002b10:    243a        :$      MOVS     r4,#0x3a
        0x00002b12:    5d04        .]      LDRB     r4,[r0,r4]
        0x00002b14:    70cc        .p      STRB     r4,[r1,#3]
        0x00002b16:    253b        ;%      MOVS     r5,#0x3b
        0x00002b18:    5d45        E]      LDRB     r5,[r0,r5]
        0x00002b1a:    708d        .p      STRB     r5,[r1,#2]
        0x00002b1c:    2644        D&      MOVS     r6,#0x44
        0x00002b1e:    5d86        .]      LDRB     r6,[r0,r6]
        0x00002b20:    704e        Np      STRB     r6,[r1,#1]
        0x00002b22:    6b40        @k      LDR      r0,[r0,#0x34]
        0x00002b24:    78c6        .x      LDRB     r6,[r0,#3]
        0x00002b26:    402e        .@      ANDS     r6,r6,r5
        0x00002b28:    738e        .s      STRB     r6,[r1,#0xe]
        0x00002b2a:    7885        .x      LDRB     r5,[r0,#2]
        0x00002b2c:    4025        %@      ANDS     r5,r5,r4
        0x00002b2e:    73cd        .s      STRB     r5,[r1,#0xf]
        0x00002b30:    7844        Dx      LDRB     r4,[r0,#1]
        0x00002b32:    401c        .@      ANDS     r4,r4,r3
        0x00002b34:    740c        .t      STRB     r4,[r1,#0x10]
        0x00002b36:    7800        .x      LDRB     r0,[r0,#0]
        0x00002b38:    4010        .@      ANDS     r0,r0,r2
        0x00002b3a:    7448        Ht      STRB     r0,[r1,#0x11]
        0x00002b3c:    4807        .H      LDR      r0,[pc,#28] ; [0x2b5c] = 0x50008020
        0x00002b3e:    2112        .!      MOVS     r1,#0x12
        0x00002b40:    60c1        .`      STR      r1,[r0,#0xc]
        0x00002b42:    4a07        .J      LDR      r2,[pc,#28] ; [0x2b60] = 0x200001f5
        0x00002b44:    7011        .p      STRB     r1,[r2,#0]
        0x00002b46:    6801        .h      LDR      r1,[r0,#0]
        0x00002b48:    2201        ."      MOVS     r2,#1
        0x00002b4a:    430a        .C      ORRS     r2,r2,r1
        0x00002b4c:    6002        .`      STR      r2,[r0,#0]
        0x00002b4e:    bd70        p.      POP      {r4-r6,pc}
    $d
    __arm_cp.5_0
        0x00002b50:    4027003c    <.'@    DCD    1076297788
    __arm_cp.5_1
        0x00002b54:    20000190    ...     DCD    536871312
    __arm_cp.5_2
        0x00002b58:    00003c80    .<..    DCD    15488
    __arm_cp.5_3
        0x00002b5c:    50008020     ..P    DCD    1342210080
    __arm_cp.5_4
        0x00002b60:    200001f5    ...     DCD    536871413
    $t
    main
        0x00002b64:    f7fffaee    ....    BL       SYS_Init_Clock ; 0x2144
        0x00002b68:    20c8        .       MOVS     r0,#0xc8
        0x00002b6a:    f7ffff41    ..A.    BL       delay_Xmsec ; 0x29f0
        0x00002b6e:    f7fefab9    ....    BL       Initialize_FMC ; 0x10e4
        0x00002b72:    f7fefd93    ....    BL       Initialize_USCI_UART ; 0x169c
        0x00002b76:    f7fef9a9    ....    BL       Initialize_ECAP ; 0xecc
        0x00002b7a:    f7fef989    ....    BL       Initialize_ADC ; 0xe90
        0x00002b7e:    f7fefcaf    ....    BL       Initialize_OP1 ; 0x14e0
        0x00002b82:    481b        .H      LDR      r0,[pc,#108] ; [0x2bf0] = 0x7f4
        0x00002b84:    f7fef940    ..@.    BL       Initialize_ACMP0 ; 0xe08
        0x00002b88:    f7fefcec    ....    BL       Initialize_Timer0 ; 0x1564
        0x00002b8c:    f7fefb62    ..b.    BL       Initialize_GPIO ; 0x1254
        0x00002b90:    f7fefbc0    ....    BL       Initialize_HDIV ; 0x1314
        0x00002b94:    f7fefcde    ....    BL       Initialize_Temperature_Sensor ; 0x1554
        0x00002b98:    2096        .       MOVS     r0,#0x96
        0x00002b9a:    f7ffff29    ..).    BL       delay_Xmsec ; 0x29f0
        0x00002b9e:    f7fefd13    ....    BL       Initialize_USCI1_SPI1_for_DAC ; 0x15c8
        0x00002ba2:    f7fdfd2b    ..+.    BL       DAC_Module_Check ; 0x5fc
        0x00002ba6:    f7fefbd9    ....    BL       Initialize_Motor_System ; 0x135c
        0x00002baa:    f7fefa0d    ....    BL       Initialize_EPWM ; 0xfc8
        0x00002bae:    2064        d       MOVS     r0,#0x64
        0x00002bb0:    f7ffff1e    ....    BL       delay_Xmsec ; 0x29f0
        0x00002bb4:    4c0f        .L      LDR      r4,[pc,#60] ; [0x2bf4] = 0x50004950
        0x00002bb6:    4d4b        KM      LDR      r5,[pc,#300] ; [0x2ce4] = 0x200000b4
        0x00002bb8:    4e0f        .N      LDR      r6,[pc,#60] ; [0x2bf8] = 0x20000204
        0x00002bba:    e001        ..      B        0x2bc0 ; main + 92
        0x00002bbc:    2000        .       MOVS     r0,#0
        0x00002bbe:    6030        0`      STR      r0,[r6,#0]
        0x00002bc0:    27b7        .'      MOVS     r7,#0xb7
        0x00002bc2:    5de8        .]      LDRB     r0,[r5,r7]
        0x00002bc4:    2800        .(      CMP      r0,#0
        0x00002bc6:    d0f9        ..      BEQ      0x2bbc ; main + 88
        0x00002bc8:    6830        0h      LDR      r0,[r6,#0]
        0x00002bca:    2831        1(      CMP      r0,#0x31
        0x00002bcc:    dc09        ..      BGT      0x2be2 ; main + 126
        0x00002bce:    2046        F       MOVS     r0,#0x46
        0x00002bd0:    f7ffff0e    ....    BL       delay_Xmsec ; 0x29f0
        0x00002bd4:    6820         h      LDR      r0,[r4,#0]
        0x00002bd6:    1c40        @.      ADDS     r0,r0,#1
        0x00002bd8:    6020         `      STR      r0,[r4,#0]
        0x00002bda:    6830        0h      LDR      r0,[r6,#0]
        0x00002bdc:    1c40        @.      ADDS     r0,r0,#1
        0x00002bde:    6030        0`      STR      r0,[r6,#0]
        0x00002be0:    e7ee        ..      B        0x2bc0 ; main + 92
        0x00002be2:    f7fffb3f    ..?.    BL       Stop_Motor_PWMOUT_OFF ; 0x2264
        0x00002be6:    2000        .       MOVS     r0,#0
        0x00002be8:    55e8        .U      STRB     r0,[r5,r7]
        0x00002bea:    6030        0`      STR      r0,[r6,#0]
        0x00002bec:    e7e8        ..      B        0x2bc0 ; main + 92
        0x00002bee:    46c0        .F      MOV      r8,r8
    $d
    __arm_cp.0_0
        0x00002bf0:    000007f4    ....    DCD    2036
    __arm_cp.0_1
        0x00002bf4:    50004950    PI.P    DCD    1342196048
    __arm_cp.0_3
        0x00002bf8:    20000204    ...     DCD    536871428
    $t
    read_UART_Check_ON_OFF_Motor
        0x00002bfc:    b5b0        ..      PUSH     {r4,r5,r7,lr}
        0x00002bfe:    21b7        .!      MOVS     r1,#0xb7
        0x00002c00:    5c41        A\      LDRB     r1,[r0,r1]
        0x00002c02:    2900        .)      CMP      r1,#0
        0x00002c04:    d003        ..      BEQ      0x2c0e ; read_UART_Check_ON_OFF_Motor + 18
        0x00002c06:    20c0        .       MOVS     r0,#0xc0
        0x00002c08:    f7fffae0    ....    BL       Set_EPWM_MASK_Enable ; 0x21cc
        0x00002c0c:    bdb0        ..      POP      {r4,r5,r7,pc}
        0x00002c0e:    3072        r0      ADDS     r0,r0,#0x72
        0x00002c10:    7801        .x      LDRB     r1,[r0,#0]
        0x00002c12:    2900        .)      CMP      r1,#0
        0x00002c14:    d103        ..      BNE      0x2c1e ; read_UART_Check_ON_OFF_Motor + 34
        0x00002c16:    4604        .F      MOV      r4,r0
        0x00002c18:    f7fffb24    ..$.    BL       Stop_Motor_PWMOUT_OFF ; 0x2264
        0x00002c1c:    4620         F      MOV      r0,r4
        0x00002c1e:    7800        .x      LDRB     r0,[r0,#0]
        0x00002c20:    2801        .(      CMP      r0,#1
        0x00002c22:    d10e        ..      BNE      0x2c42 ; read_UART_Check_ON_OFF_Motor + 70
        0x00002c24:    24b6        .$      MOVS     r4,#0xb6
        0x00002c26:    4d2f        /M      LDR      r5,[pc,#188] ; [0x2ce4] = 0x200000b4
        0x00002c28:    5d28        (]      LDRB     r0,[r5,r4]
        0x00002c2a:    2800        .(      CMP      r0,#0
        0x00002c2c:    d109        ..      BNE      0x2c42 ; read_UART_Check_ON_OFF_Motor + 70
        0x00002c2e:    207d        }       MOVS     r0,#0x7d
        0x00002c30:    00c0        ..      LSLS     r0,r0,#3
        0x00002c32:    4601        .F      MOV      r1,r0
        0x00002c34:    4602        .F      MOV      r2,r0
        0x00002c36:    f7fffad9    ....    BL       Start_Motor_PWMOUT_ON ; 0x21ec
        0x00002c3a:    20b5        .       MOVS     r0,#0xb5
        0x00002c3c:    2102        .!      MOVS     r1,#2
        0x00002c3e:    5429        )T      STRB     r1,[r5,r0]
        0x00002c40:    5529        )U      STRB     r1,[r5,r4]
        0x00002c42:    bdb0        ..      POP      {r4,r5,r7,pc}
    read_VSP_Check_ON_OFF_Motor
        0x00002c44:    b580        ..      PUSH     {r7,lr}
        0x00002c46:    21b7        .!      MOVS     r1,#0xb7
        0x00002c48:    5c41        A\      LDRB     r1,[r0,r1]
        0x00002c4a:    2900        .)      CMP      r1,#0
        0x00002c4c:    d003        ..      BEQ      0x2c56 ; read_VSP_Check_ON_OFF_Motor + 18
        0x00002c4e:    20c0        .       MOVS     r0,#0xc0
        0x00002c50:    f7fffabc    ....    BL       Set_EPWM_MASK_Enable ; 0x21cc
        0x00002c54:    bd80        ..      POP      {r7,pc}
        0x00002c56:    4601        .F      MOV      r1,r0
        0x00002c58:    3172        r1      ADDS     r1,r1,#0x72
        0x00002c5a:    30b7        .0      ADDS     r0,r0,#0xb7
        0x00002c5c:    2205        ."      MOVS     r2,#5
        0x00002c5e:    5a80        .Z      LDRH     r0,[r0,r2]
        0x00002c60:    780a        .x      LDRB     r2,[r1,#0]
        0x00002c62:    490d        .I      LDR      r1,[pc,#52] ; [0x2c98] = 0x257
        0x00002c64:    2a01        .*      CMP      r2,#1
        0x00002c66:    d105        ..      BNE      0x2c74 ; read_VSP_Check_ON_OFF_Motor + 48
        0x00002c68:    1c89        ..      ADDS     r1,r1,#2
        0x00002c6a:    4288        .B      CMP      r0,r1
        0x00002c6c:    d213        ..      BCS      0x2c96 ; read_VSP_Check_ON_OFF_Motor + 82
        0x00002c6e:    f7fffaf9    ....    BL       Stop_Motor_PWMOUT_OFF ; 0x2264
        0x00002c72:    bd80        ..      POP      {r7,pc}
        0x00002c74:    4288        .B      CMP      r0,r1
        0x00002c76:    d90e        ..      BLS      0x2c96 ; read_VSP_Check_ON_OFF_Motor + 82
        0x00002c78:    207d        }       MOVS     r0,#0x7d
        0x00002c7a:    00c0        ..      LSLS     r0,r0,#3
        0x00002c7c:    4601        .F      MOV      r1,r0
        0x00002c7e:    4602        .F      MOV      r2,r0
        0x00002c80:    f7fffab4    ....    BL       Start_Motor_PWMOUT_ON ; 0x21ec
        0x00002c84:    20b6        .       MOVS     r0,#0xb6
        0x00002c86:    4917        .I      LDR      r1,[pc,#92] ; [0x2ce4] = 0x200000b4
        0x00002c88:    2202        ."      MOVS     r2,#2
        0x00002c8a:    540a        .T      STRB     r2,[r1,r0]
        0x00002c8c:    2072        r       MOVS     r0,#0x72
        0x00002c8e:    2301        .#      MOVS     r3,#1
        0x00002c90:    540b        .T      STRB     r3,[r1,r0]
        0x00002c92:    20b5        .       MOVS     r0,#0xb5
        0x00002c94:    540a        .T      STRB     r2,[r1,r0]
        0x00002c96:    bd80        ..      POP      {r7,pc}
    $d
    __arm_cp.6_0
        0x00002c98:    00000257    W...    DCD    599
    $t
    read_VSP_to_speed_cmd
        0x00002c9c:    21b6        .!      MOVS     r1,#0xb6
        0x00002c9e:    5c41        A\      LDRB     r1,[r0,r1]
        0x00002ca0:    2902        .)      CMP      r1,#2
        0x00002ca2:    d115        ..      BNE      0x2cd0 ; read_VSP_to_speed_cmd + 52
        0x00002ca4:    4601        .F      MOV      r1,r0
        0x00002ca6:    31b6        .1      ADDS     r1,r1,#0xb6
        0x00002ca8:    88c9        ..      LDRH     r1,[r1,#6]
        0x00002caa:    4a0a        .J      LDR      r2,[pc,#40] ; [0x2cd4] = 0x668b
        0x00002cac:    434a        JC      MULS     r2,r1,r2
        0x00002cae:    490a        .I      LDR      r1,[pc,#40] ; [0x2cd8] = 0xff0faa38
        0x00002cb0:    1851        Q.      ADDS     r1,r2,r1
        0x00002cb2:    4a0a        .J      LDR      r2,[pc,#40] ; [0x2cdc] = 0x5787fff
        0x00002cb4:    4291        .B      CMP      r1,r2
        0x00002cb6:    d802        ..      BHI      0x2cbe ; read_VSP_to_speed_cmd + 34
        0x00002cb8:    0bc9        ..      LSRS     r1,r1,#15
        0x00002cba:    31c8        .1      ADDS     r1,r1,#0xc8
        0x00002cbc:    e000        ..      B        0x2cc0 ; read_VSP_to_speed_cmd + 36
        0x00002cbe:    4908        .I      LDR      r1,[pc,#32] ; [0x2ce0] = 0xbb8
        0x00002cc0:    306a        j0      ADDS     r0,r0,#0x6a
        0x00002cc2:    2273        s"      MOVS     r2,#0x73
        0x00002cc4:    4b07        .K      LDR      r3,[pc,#28] ; [0x2ce4] = 0x200000b4
        0x00002cc6:    5c9a        .\      LDRB     r2,[r3,r2]
        0x00002cc8:    2a00        .*      CMP      r2,#0
        0x00002cca:    d100        ..      BNE      0x2cce ; read_VSP_to_speed_cmd + 50
        0x00002ccc:    4249        IB      RSBS     r1,r1,#0
        0x00002cce:    8001        ..      STRH     r1,[r0,#0]
        0x00002cd0:    4770        pG      BX       lr
        0x00002cd2:    46c0        .F      MOV      r8,r8
    $d
    __arm_cp.9_0
        0x00002cd4:    0000668b    .f..    DCD    26251
    __arm_cp.9_1
        0x00002cd8:    ff0faa38    8...    DCD    4279216696
    __arm_cp.9_2
        0x00002cdc:    05787fff    ..x.    DCD    91783167
    __arm_cp.9_3
        0x00002ce0:    00000bb8    ....    DCD    3000
    __arm_cp.9_4
        0x00002ce4:    200000b4    ...     DCD    536871092
    $t
    read_data_flash_to_CMD_temp
        0x00002ce8:    b5f0        ..      PUSH     {r4-r7,lr}
        0x00002cea:    b085        ..      SUB      sp,sp,#0x14
        0x00002cec:    49bc        .I      LDR      r1,[pc,#752] ; [0x2fe0] = 0x50000100
        0x00002cee:    2059        Y       MOVS     r0,#0x59
        0x00002cf0:    6008        .`      STR      r0,[r1,#0]
        0x00002cf2:    2016        .       MOVS     r0,#0x16
        0x00002cf4:    6008        .`      STR      r0,[r1,#0]
        0x00002cf6:    2088        .       MOVS     r0,#0x88
        0x00002cf8:    6008        .`      STR      r0,[r1,#0]
        0x00002cfa:    6808        .h      LDR      r0,[r1,#0]
        0x00002cfc:    2800        .(      CMP      r0,#0
        0x00002cfe:    d0f6        ..      BEQ      0x2cee ; read_data_flash_to_CMD_temp + 6
        0x00002d00:    49b8        .I      LDR      r1,[pc,#736] ; [0x2fe4] = 0x5000c000
        0x00002d02:    6808        .h      LDR      r0,[r1,#0]
        0x00002d04:    2208        ."      MOVS     r2,#8
        0x00002d06:    9201        ..      STR      r2,[sp,#4]
        0x00002d08:    4310        .C      ORRS     r0,r0,r2
        0x00002d0a:    6008        .`      STR      r0,[r1,#0]
        0x00002d0c:    4c4c        LL      LDR      r4,[pc,#304] ; [0x2e40] = 0x35e4
        0x00002d0e:    3438        84      ADDS     r4,r4,#0x38
        0x00002d10:    207f        .       MOVS     r0,#0x7f
        0x00002d12:    0245        E.      LSLS     r5,r0,#9
        0x00002d14:    2600        .&      MOVS     r6,#0
        0x00002d16:    4f4c        LO      LDR      r7,[pc,#304] ; [0x2e48] = 0x20000068
        0x00002d18:    9502        ..      STR      r5,[sp,#8]
        0x00002d1a:    e00b        ..      B        0x2d34 ; read_data_flash_to_CMD_temp + 76
        0x00002d1c:    0a01        ..      LSRS     r1,r0,#8
        0x00002d1e:    19ba        ..      ADDS     r2,r7,r6
        0x00002d20:    7051        Qp      STRB     r1,[r2,#1]
        0x00002d22:    55b8        .U      STRB     r0,[r7,r6]
        0x00002d24:    344c        L4      ADDS     r4,r4,#0x4c
        0x00002d26:    19b8        ..      ADDS     r0,r7,r6
        0x00002d28:    2101        .!      MOVS     r1,#1
        0x00002d2a:    7101        .q      STRB     r1,[r0,#4]
        0x00002d2c:    1d2d        -.      ADDS     r5,r5,#4
        0x00002d2e:    3608        .6      ADDS     r6,r6,#8
        0x00002d30:    2e18        ..      CMP      r6,#0x18
        0x00002d32:    d00e        ..      BEQ      0x2d52 ; read_data_flash_to_CMD_temp + 106
        0x00002d34:    4628        (F      MOV      r0,r5
        0x00002d36:    f7fdfecd    ....    BL       FMC_Read ; 0xad4
        0x00002d3a:    6821        !h      LDR      r1,[r4,#0]
        0x00002d3c:    4a41        AJ      LDR      r2,[pc,#260] ; [0x2e44] = 0xffff
        0x00002d3e:    4291        .B      CMP      r1,r2
        0x00002d40:    d0ec        ..      BEQ      0x2d1c ; read_data_flash_to_CMD_temp + 52
        0x00002d42:    29ff        .)      CMP      r1,#0xff
        0x00002d44:    d0ed        ..      BEQ      0x2d22 ; read_data_flash_to_CMD_temp + 58
        0x00002d46:    1c49        I.      ADDS     r1,r1,#1
        0x00002d48:    d1ec        ..      BNE      0x2d24 ; read_data_flash_to_CMD_temp + 60
        0x00002d4a:    19b9        ..      ADDS     r1,r7,r6
        0x00002d4c:    0c02        ..      LSRS     r2,r0,#16
        0x00002d4e:    804a        J.      STRH     r2,[r1,#2]
        0x00002d50:    e7e4        ..      B        0x2d1c ; read_data_flash_to_CMD_temp + 52
        0x00002d52:    9104        ..      STR      r1,[sp,#0x10]
        0x00002d54:    4f3d        =O      LDR      r7,[pc,#244] ; [0x2e4c] = 0x36c8
        0x00002d56:    3738        87      ADDS     r7,r7,#0x38
        0x00002d58:    9d02        ..      LDR      r5,[sp,#8]
        0x00002d5a:    3550        P5      ADDS     r5,r5,#0x50
        0x00002d5c:    2007        .       MOVS     r0,#7
        0x00002d5e:    43c4        .C      MVNS     r4,r0
        0x00002d60:    4e3b        ;N      LDR      r6,[pc,#236] ; [0x2e50] = 0x20000080
        0x00002d62:    9403        ..      STR      r4,[sp,#0xc]
        0x00002d64:    e00b        ..      B        0x2d7e ; read_data_flash_to_CMD_temp + 150
        0x00002d66:    0a01        ..      LSRS     r1,r0,#8
        0x00002d68:    1932        2.      ADDS     r2,r6,r4
        0x00002d6a:    7251        Qr      STRB     r1,[r2,#9]
        0x00002d6c:    1931        1.      ADDS     r1,r6,r4
        0x00002d6e:    7208        .r      STRB     r0,[r1,#8]
        0x00002d70:    374c        L7      ADDS     r7,r7,#0x4c
        0x00002d72:    1930        0.      ADDS     r0,r6,r4
        0x00002d74:    9904        ..      LDR      r1,[sp,#0x10]
        0x00002d76:    7301        .s      STRB     r1,[r0,#0xc]
        0x00002d78:    1d2d        -.      ADDS     r5,r5,#4
        0x00002d7a:    3408        .4      ADDS     r4,r4,#8
        0x00002d7c:    d10e        ..      BNE      0x2d9c ; read_data_flash_to_CMD_temp + 180
        0x00002d7e:    4628        (F      MOV      r0,r5
        0x00002d80:    f7fdfea8    ....    BL       FMC_Read ; 0xad4
        0x00002d84:    6839        9h      LDR      r1,[r7,#0]
        0x00002d86:    4a2f        /J      LDR      r2,[pc,#188] ; [0x2e44] = 0xffff
        0x00002d88:    4291        .B      CMP      r1,r2
        0x00002d8a:    d0ec        ..      BEQ      0x2d66 ; read_data_flash_to_CMD_temp + 126
        0x00002d8c:    29ff        .)      CMP      r1,#0xff
        0x00002d8e:    d0ed        ..      BEQ      0x2d6c ; read_data_flash_to_CMD_temp + 132
        0x00002d90:    1c49        I.      ADDS     r1,r1,#1
        0x00002d92:    d1ed        ..      BNE      0x2d70 ; read_data_flash_to_CMD_temp + 136
        0x00002d94:    1931        1.      ADDS     r1,r6,r4
        0x00002d96:    0c02        ..      LSRS     r2,r0,#16
        0x00002d98:    814a        J.      STRH     r2,[r1,#0xa]
        0x00002d9a:    e7e4        ..      B        0x2d66 ; read_data_flash_to_CMD_temp + 126
        0x00002d9c:    4f2d        -O      LDR      r7,[pc,#180] ; [0x2e54] = 0x3760
        0x00002d9e:    3738        87      ADDS     r7,r7,#0x38
        0x00002da0:    9d02        ..      LDR      r5,[sp,#8]
        0x00002da2:    35a0        .5      ADDS     r5,r5,#0xa0
        0x00002da4:    4e2c        ,N      LDR      r6,[pc,#176] ; [0x2e58] = 0x20000090
        0x00002da6:    9c03        ..      LDR      r4,[sp,#0xc]
        0x00002da8:    e00b        ..      B        0x2dc2 ; read_data_flash_to_CMD_temp + 218
        0x00002daa:    0a01        ..      LSRS     r1,r0,#8
        0x00002dac:    1932        2.      ADDS     r2,r6,r4
        0x00002dae:    7251        Qr      STRB     r1,[r2,#9]
        0x00002db0:    1931        1.      ADDS     r1,r6,r4
        0x00002db2:    7208        .r      STRB     r0,[r1,#8]
        0x00002db4:    374c        L7      ADDS     r7,r7,#0x4c
        0x00002db6:    1930        0.      ADDS     r0,r6,r4
        0x00002db8:    9904        ..      LDR      r1,[sp,#0x10]
        0x00002dba:    7301        .s      STRB     r1,[r0,#0xc]
        0x00002dbc:    1d2d        -.      ADDS     r5,r5,#4
        0x00002dbe:    3408        .4      ADDS     r4,r4,#8
        0x00002dc0:    d10e        ..      BNE      0x2de0 ; read_data_flash_to_CMD_temp + 248
        0x00002dc2:    4628        (F      MOV      r0,r5
        0x00002dc4:    f7fdfe86    ....    BL       FMC_Read ; 0xad4
        0x00002dc8:    6839        9h      LDR      r1,[r7,#0]
        0x00002dca:    4a1e        .J      LDR      r2,[pc,#120] ; [0x2e44] = 0xffff
        0x00002dcc:    4291        .B      CMP      r1,r2
        0x00002dce:    d0ec        ..      BEQ      0x2daa ; read_data_flash_to_CMD_temp + 194
        0x00002dd0:    29ff        .)      CMP      r1,#0xff
        0x00002dd2:    d0ed        ..      BEQ      0x2db0 ; read_data_flash_to_CMD_temp + 200
        0x00002dd4:    1c49        I.      ADDS     r1,r1,#1
        0x00002dd6:    d1ed        ..      BNE      0x2db4 ; read_data_flash_to_CMD_temp + 204
        0x00002dd8:    1931        1.      ADDS     r1,r6,r4
        0x00002dda:    0c02        ..      LSRS     r2,r0,#16
        0x00002ddc:    814a        J.      STRH     r2,[r1,#0xa]
        0x00002dde:    e7e4        ..      B        0x2daa ; read_data_flash_to_CMD_temp + 194
        0x00002de0:    4b1a        .K      LDR      r3,[pc,#104] ; [0x2e4c] = 0x36c8
        0x00002de2:    3338        83      ADDS     r3,r3,#0x38
        0x00002de4:    9c02        ..      LDR      r4,[sp,#8]
        0x00002de6:    34f0        .4      ADDS     r4,r4,#0xf0
        0x00002de8:    4d1c        .M      LDR      r5,[pc,#112] ; [0x2e5c] = 0x200000a0
        0x00002dea:    e00c        ..      B        0x2e06 ; read_data_flash_to_CMD_temp + 286
        0x00002dec:    0a01        ..      LSRS     r1,r0,#8
        0x00002dee:    19aa        ..      ADDS     r2,r5,r6
        0x00002df0:    7251        Qr      STRB     r1,[r2,#9]
        0x00002df2:    19a9        ..      ADDS     r1,r5,r6
        0x00002df4:    7208        .r      STRB     r0,[r1,#8]
        0x00002df6:    334c        L3      ADDS     r3,r3,#0x4c
        0x00002df8:    19a8        ..      ADDS     r0,r5,r6
        0x00002dfa:    9904        ..      LDR      r1,[sp,#0x10]
        0x00002dfc:    7301        .s      STRB     r1,[r0,#0xc]
        0x00002dfe:    1d24        $.      ADDS     r4,r4,#4
        0x00002e00:    3608        .6      ADDS     r6,r6,#8
        0x00002e02:    9603        ..      STR      r6,[sp,#0xc]
        0x00002e04:    d111        ..      BNE      0x2e2a ; read_data_flash_to_CMD_temp + 322
        0x00002e06:    4620         F      MOV      r0,r4
        0x00002e08:    461f        .F      MOV      r7,r3
        0x00002e0a:    f7fdfe63    ..c.    BL       FMC_Read ; 0xad4
        0x00002e0e:    463b        ;F      MOV      r3,r7
        0x00002e10:    6839        9h      LDR      r1,[r7,#0]
        0x00002e12:    4a0c        .J      LDR      r2,[pc,#48] ; [0x2e44] = 0xffff
        0x00002e14:    4291        .B      CMP      r1,r2
        0x00002e16:    9e03        ..      LDR      r6,[sp,#0xc]
        0x00002e18:    d0e8        ..      BEQ      0x2dec ; read_data_flash_to_CMD_temp + 260
        0x00002e1a:    29ff        .)      CMP      r1,#0xff
        0x00002e1c:    d0e9        ..      BEQ      0x2df2 ; read_data_flash_to_CMD_temp + 266
        0x00002e1e:    1c49        I.      ADDS     r1,r1,#1
        0x00002e20:    d1e9        ..      BNE      0x2df6 ; read_data_flash_to_CMD_temp + 270
        0x00002e22:    19a9        ..      ADDS     r1,r5,r6
        0x00002e24:    0c02        ..      LSRS     r2,r0,#16
        0x00002e26:    814a        J.      STRH     r2,[r1,#0xa]
        0x00002e28:    e7e0        ..      B        0x2dec ; read_data_flash_to_CMD_temp + 260
        0x00002e2a:    496e        nI      LDR      r1,[pc,#440] ; [0x2fe4] = 0x5000c000
        0x00002e2c:    6808        .h      LDR      r0,[r1,#0]
        0x00002e2e:    9a01        ..      LDR      r2,[sp,#4]
        0x00002e30:    4390        .C      BICS     r0,r0,r2
        0x00002e32:    6008        .`      STR      r0,[r1,#0]
        0x00002e34:    2000        .       MOVS     r0,#0
        0x00002e36:    496a        jI      LDR      r1,[pc,#424] ; [0x2fe0] = 0x50000100
        0x00002e38:    6008        .`      STR      r0,[r1,#0]
        0x00002e3a:    b005        ..      ADD      sp,sp,#0x14
        0x00002e3c:    bdf0        ..      POP      {r4-r7,pc}
        0x00002e3e:    46c0        .F      MOV      r8,r8
    $d
    __arm_cp.20_2
        0x00002e40:    000035e4    .5..    DCD    13796
    __arm_cp.20_3
        0x00002e44:    0000ffff    ....    DCD    65535
    __arm_cp.20_4
        0x00002e48:    20000068    h..     DCD    536871016
    __arm_cp.20_5
        0x00002e4c:    000036c8    .6..    DCD    14024
    __arm_cp.20_6
        0x00002e50:    20000080    ...     DCD    536871040
    __arm_cp.20_7
        0x00002e54:    00003760    `7..    DCD    14176
    __arm_cp.20_8
        0x00002e58:    20000090    ...     DCD    536871056
    __arm_cp.20_9
        0x00002e5c:    200000a0    ...     DCD    536871072
    $t
    read_data_flash_to_GUI
        0x00002e60:    b5f0        ..      PUSH     {r4-r7,lr}
        0x00002e62:    b085        ..      SUB      sp,sp,#0x14
        0x00002e64:    460c        .F      MOV      r4,r1
        0x00002e66:    4b59        YK      LDR      r3,[pc,#356] ; [0x2fcc] = 0x40040008
        0x00002e68:    6819        .h      LDR      r1,[r3,#0]
        0x00002e6a:    9102        ..      STR      r1,[sp,#8]
        0x00002e6c:    6819        .h      LDR      r1,[r3,#0]
        0x00002e6e:    223f        ?"      MOVS     r2,#0x3f
        0x00002e70:    4391        .C      BICS     r1,r1,r2
        0x00002e72:    6019        .`      STR      r1,[r3,#0]
        0x00002e74:    4956        VI      LDR      r1,[pc,#344] ; [0x2fd0] = 0xe000e100
        0x00002e76:    6809        .h      LDR      r1,[r1,#0]
        0x00002e78:    4a56        VJ      LDR      r2,[pc,#344] ; [0x2fd4] = 0x20000174
        0x00002e7a:    6011        .`      STR      r1,[r2,#0]
        0x00002e7c:    4956        VI      LDR      r1,[pc,#344] ; [0x2fd8] = 0xe000e180
        0x00002e7e:    4a57        WJ      LDR      r2,[pc,#348] ; [0x2fdc] = 0xfff7ffff
        0x00002e80:    600a        .`      STR      r2,[r1,#0]
        0x00002e82:    4a57        WJ      LDR      r2,[pc,#348] ; [0x2fe0] = 0x50000100
        0x00002e84:    2159        Y!      MOVS     r1,#0x59
        0x00002e86:    6011        .`      STR      r1,[r2,#0]
        0x00002e88:    2116        .!      MOVS     r1,#0x16
        0x00002e8a:    6011        .`      STR      r1,[r2,#0]
        0x00002e8c:    2188        .!      MOVS     r1,#0x88
        0x00002e8e:    6011        .`      STR      r1,[r2,#0]
        0x00002e90:    6811        .h      LDR      r1,[r2,#0]
        0x00002e92:    2900        .)      CMP      r1,#0
        0x00002e94:    d0f6        ..      BEQ      0x2e84 ; read_data_flash_to_GUI + 36
        0x00002e96:    4a53        SJ      LDR      r2,[pc,#332] ; [0x2fe4] = 0x5000c000
        0x00002e98:    6811        .h      LDR      r1,[r2,#0]
        0x00002e9a:    2308        .#      MOVS     r3,#8
        0x00002e9c:    9301        ..      STR      r3,[sp,#4]
        0x00002e9e:    4319        .C      ORRS     r1,r1,r3
        0x00002ea0:    6011        .`      STR      r1,[r2,#0]
        0x00002ea2:    9403        ..      STR      r4,[sp,#0xc]
        0x00002ea4:    2c00        .,      CMP      r4,#0
        0x00002ea6:    d01f        ..      BEQ      0x2ee8 ; read_data_flash_to_GUI + 136
        0x00002ea8:    2206        ."      MOVS     r2,#6
        0x00002eaa:    9903        ..      LDR      r1,[sp,#0xc]
        0x00002eac:    434a        JC      MULS     r2,r1,r2
        0x00002eae:    9204        ..      STR      r2,[sp,#0x10]
        0x00002eb0:    2150        P!      MOVS     r1,#0x50
        0x00002eb2:    4341        AC      MULS     r1,r0,r1
        0x00002eb4:    207f        .       MOVS     r0,#0x7f
        0x00002eb6:    0240        @.      LSLS     r0,r0,#9
        0x00002eb8:    180d        ..      ADDS     r5,r1,r0
        0x00002eba:    2600        .&      MOVS     r6,#0
        0x00002ebc:    4634        4F      MOV      r4,r6
        0x00002ebe:    2040        @       MOVS     r0,#0x40
        0x00002ec0:    494a        JI      LDR      r1,[pc,#296] ; [0x2fec] = 0x20000190
        0x00002ec2:    5588        .U      STRB     r0,[r1,r6]
        0x00002ec4:    198f        ..      ADDS     r7,r1,r6
        0x00002ec6:    707c        |p      STRB     r4,[r7,#1]
        0x00002ec8:    4628        (F      MOV      r0,r5
        0x00002eca:    f7fdfe03    ....    BL       FMC_Read ; 0xad4
        0x00002ece:    7178        xq      STRB     r0,[r7,#5]
        0x00002ed0:    0a01        ..      LSRS     r1,r0,#8
        0x00002ed2:    7139        9q      STRB     r1,[r7,#4]
        0x00002ed4:    0c01        ..      LSRS     r1,r0,#16
        0x00002ed6:    70f9        .p      STRB     r1,[r7,#3]
        0x00002ed8:    0e00        ..      LSRS     r0,r0,#24
        0x00002eda:    70b8        .p      STRB     r0,[r7,#2]
        0x00002edc:    1db6        ..      ADDS     r6,r6,#6
        0x00002ede:    1d2d        -.      ADDS     r5,r5,#4
        0x00002ee0:    1c64        d.      ADDS     r4,r4,#1
        0x00002ee2:    9804        ..      LDR      r0,[sp,#0x10]
        0x00002ee4:    42b0        .B      CMP      r0,r6
        0x00002ee6:    d1ea        ..      BNE      0x2ebe ; read_data_flash_to_GUI + 94
        0x00002ee8:    493e        >I      LDR      r1,[pc,#248] ; [0x2fe4] = 0x5000c000
        0x00002eea:    6808        .h      LDR      r0,[r1,#0]
        0x00002eec:    9a01        ..      LDR      r2,[sp,#4]
        0x00002eee:    4390        .C      BICS     r0,r0,r2
        0x00002ef0:    6008        .`      STR      r0,[r1,#0]
        0x00002ef2:    2000        .       MOVS     r0,#0
        0x00002ef4:    493a        :I      LDR      r1,[pc,#232] ; [0x2fe0] = 0x50000100
        0x00002ef6:    6008        .`      STR      r0,[r1,#0]
        0x00002ef8:    2006        .       MOVS     r0,#6
        0x00002efa:    9903        ..      LDR      r1,[sp,#0xc]
        0x00002efc:    4348        HC      MULS     r0,r1,r0
        0x00002efe:    b2c1        ..      UXTB     r1,r0
        0x00002f00:    4a3b        ;J      LDR      r2,[pc,#236] ; [0x2ff0] = 0x50008020
        0x00002f02:    60d1        .`      STR      r1,[r2,#0xc]
        0x00002f04:    6811        .h      LDR      r1,[r2,#0]
        0x00002f06:    2301        .#      MOVS     r3,#1
        0x00002f08:    430b        .C      ORRS     r3,r3,r1
        0x00002f0a:    6013        .`      STR      r3,[r2,#0]
        0x00002f0c:    4931        1I      LDR      r1,[pc,#196] ; [0x2fd4] = 0x20000174
        0x00002f0e:    6809        .h      LDR      r1,[r1,#0]
        0x00002f10:    4a2f        /J      LDR      r2,[pc,#188] ; [0x2fd0] = 0xe000e100
        0x00002f12:    6011        .`      STR      r1,[r2,#0]
        0x00002f14:    4937        7I      LDR      r1,[pc,#220] ; [0x2ff4] = 0x200001f5
        0x00002f16:    7008        .p      STRB     r0,[r1,#0]
        0x00002f18:    482c        ,H      LDR      r0,[pc,#176] ; [0x2fcc] = 0x40040008
        0x00002f1a:    9902        ..      LDR      r1,[sp,#8]
        0x00002f1c:    6001        .`      STR      r1,[r0,#0]
        0x00002f1e:    b005        ..      ADD      sp,sp,#0x14
        0x00002f20:    bdf0        ..      POP      {r4-r7,pc}
        0x00002f22:    46c0        .F      MOV      r8,r8
    write_data_flash_from_GUI
        0x00002f24:    b5f0        ..      PUSH     {r4-r7,lr}
        0x00002f26:    b083        ..      SUB      sp,sp,#0xc
        0x00002f28:    461c        .F      MOV      r4,r3
        0x00002f2a:    460d        .F      MOV      r5,r1
        0x00002f2c:    4b27        'K      LDR      r3,[pc,#156] ; [0x2fcc] = 0x40040008
        0x00002f2e:    6818        .h      LDR      r0,[r3,#0]
        0x00002f30:    9002        ..      STR      r0,[sp,#8]
        0x00002f32:    6818        .h      LDR      r0,[r3,#0]
        0x00002f34:    213f        ?!      MOVS     r1,#0x3f
        0x00002f36:    4388        .C      BICS     r0,r0,r1
        0x00002f38:    6018        .`      STR      r0,[r3,#0]
        0x00002f3a:    4825        %H      LDR      r0,[pc,#148] ; [0x2fd0] = 0xe000e100
        0x00002f3c:    6800        .h      LDR      r0,[r0,#0]
        0x00002f3e:    4925        %I      LDR      r1,[pc,#148] ; [0x2fd4] = 0x20000174
        0x00002f40:    6008        .`      STR      r0,[r1,#0]
        0x00002f42:    4825        %H      LDR      r0,[pc,#148] ; [0x2fd8] = 0xe000e180
        0x00002f44:    4925        %I      LDR      r1,[pc,#148] ; [0x2fdc] = 0xfff7ffff
        0x00002f46:    6001        .`      STR      r1,[r0,#0]
        0x00002f48:    4f25        %O      LDR      r7,[pc,#148] ; [0x2fe0] = 0x50000100
        0x00002f4a:    2059        Y       MOVS     r0,#0x59
        0x00002f4c:    6038        8`      STR      r0,[r7,#0]
        0x00002f4e:    2016        .       MOVS     r0,#0x16
        0x00002f50:    6038        8`      STR      r0,[r7,#0]
        0x00002f52:    2088        .       MOVS     r0,#0x88
        0x00002f54:    6038        8`      STR      r0,[r7,#0]
        0x00002f56:    6838        8h      LDR      r0,[r7,#0]
        0x00002f58:    2800        .(      CMP      r0,#0
        0x00002f5a:    d0f6        ..      BEQ      0x2f4a ; write_data_flash_from_GUI + 38
        0x00002f5c:    4921        !I      LDR      r1,[pc,#132] ; [0x2fe4] = 0x5000c000
        0x00002f5e:    6808        .h      LDR      r0,[r1,#0]
        0x00002f60:    2308        .#      MOVS     r3,#8
        0x00002f62:    9301        ..      STR      r3,[sp,#4]
        0x00002f64:    4318        .C      ORRS     r0,r0,r3
        0x00002f66:    6008        .`      STR      r0,[r1,#0]
        0x00002f68:    2c00        .,      CMP      r4,#0
        0x00002f6a:    d00f        ..      BEQ      0x2f8c ; write_data_flash_from_GUI + 104
        0x00002f6c:    2050        P       MOVS     r0,#0x50
        0x00002f6e:    4350        PC      MULS     r0,r2,r0
        0x00002f70:    217f        .!      MOVS     r1,#0x7f
        0x00002f72:    0249        I.      LSLS     r1,r1,#9
        0x00002f74:    1846        F.      ADDS     r6,r0,r1
        0x00002f76:    6829        )h      LDR      r1,[r5,#0]
        0x00002f78:    4630        0F      MOV      r0,r6
        0x00002f7a:    f7fdfdbb    ....    BL       FMC_Write ; 0xaf4
        0x00002f7e:    2001        .       MOVS     r0,#1
        0x00002f80:    7128        (q      STRB     r0,[r5,#4]
        0x00002f82:    1e64        d.      SUBS     r4,r4,#1
        0x00002f84:    1d36        6.      ADDS     r6,r6,#4
        0x00002f86:    3508        .5      ADDS     r5,r5,#8
        0x00002f88:    2c00        .,      CMP      r4,#0
        0x00002f8a:    d1f4        ..      BNE      0x2f76 ; write_data_flash_from_GUI + 82
        0x00002f8c:    4915        .I      LDR      r1,[pc,#84] ; [0x2fe4] = 0x5000c000
        0x00002f8e:    6808        .h      LDR      r0,[r1,#0]
        0x00002f90:    9a01        ..      LDR      r2,[sp,#4]
        0x00002f92:    4390        .C      BICS     r0,r0,r2
        0x00002f94:    6008        .`      STR      r0,[r1,#0]
        0x00002f96:    2000        .       MOVS     r0,#0
        0x00002f98:    6038        8`      STR      r0,[r7,#0]
        0x00002f9a:    b662        b.      CPSIE    i
        0x00002f9c:    4812        .H      LDR      r0,[pc,#72] ; [0x2fe8] = 0x4027003c
        0x00002f9e:    6801        .h      LDR      r1,[r0,#0]
        0x00002fa0:    05c9        ..      LSLS     r1,r1,#23
        0x00002fa2:    d5fc        ..      BPL      0x2f9e ; write_data_flash_from_GUI + 122
        0x00002fa4:    4811        .H      LDR      r0,[pc,#68] ; [0x2fec] = 0x20000190
        0x00002fa6:    2141        A!      MOVS     r1,#0x41
        0x00002fa8:    7001        .p      STRB     r1,[r0,#0]
        0x00002faa:    4811        .H      LDR      r0,[pc,#68] ; [0x2ff0] = 0x50008020
        0x00002fac:    2101        .!      MOVS     r1,#1
        0x00002fae:    60c1        .`      STR      r1,[r0,#0xc]
        0x00002fb0:    6802        .h      LDR      r2,[r0,#0]
        0x00002fb2:    430a        .C      ORRS     r2,r2,r1
        0x00002fb4:    6002        .`      STR      r2,[r0,#0]
        0x00002fb6:    4807        .H      LDR      r0,[pc,#28] ; [0x2fd4] = 0x20000174
        0x00002fb8:    6800        .h      LDR      r0,[r0,#0]
        0x00002fba:    4a05        .J      LDR      r2,[pc,#20] ; [0x2fd0] = 0xe000e100
        0x00002fbc:    6010        .`      STR      r0,[r2,#0]
        0x00002fbe:    480d        .H      LDR      r0,[pc,#52] ; [0x2ff4] = 0x200001f5
        0x00002fc0:    7001        .p      STRB     r1,[r0,#0]
        0x00002fc2:    4802        .H      LDR      r0,[pc,#8] ; [0x2fcc] = 0x40040008
        0x00002fc4:    9902        ..      LDR      r1,[sp,#8]
        0x00002fc6:    6001        .`      STR      r1,[r0,#0]
        0x00002fc8:    b003        ..      ADD      sp,sp,#0xc
        0x00002fca:    bdf0        ..      POP      {r4-r7,pc}
    $d
    __arm_cp.22_0
        0x00002fcc:    40040008    ...@    DCD    1074003976
    __arm_cp.22_1
        0x00002fd0:    e000e100    ....    DCD    3758153984
    __arm_cp.22_2
        0x00002fd4:    20000174    t..     DCD    536871284
    __arm_cp.22_3
        0x00002fd8:    e000e180    ....    DCD    3758154112
    __arm_cp.22_4
        0x00002fdc:    fff7ffff    ....    DCD    4294443007
    __arm_cp.22_5
        0x00002fe0:    50000100    ...P    DCD    1342177536
    __arm_cp.22_6
        0x00002fe4:    5000c000    ...P    DCD    1342226432
    __arm_cp.22_7
        0x00002fe8:    4027003c    <.'@    DCD    1076297788
    __arm_cp.22_8
        0x00002fec:    20000190    ...     DCD    536871312
    __arm_cp.22_9
        0x00002ff0:    50008020     ..P    DCD    1342210080
    __arm_cp.22_10
        0x00002ff4:    200001f5    ...     DCD    536871413
    $t
    i.Hard_Fault_Handler
    Hard_Fault_Handler
    __tagsym$$used
        0x00002ff8:    4604        .F      MOV      r4,r0
        0x00002ffa:    a003        ..      ADR      r0,{pc}+0xe ; 0x3008
        0x00002ffc:    f000f90a    ....    BL       __0printf$5 ; 0x3214
        0x00003000:    4620         F      MOV      r0,r4
        0x00003002:    f000fa9b    ....    BL       stackDump ; 0x353c
        0x00003006:    e7fe        ..      B        0x3006 ; Hard_Fault_Handler + 14
    $d
        0x00003008:    48206e49    In H    DCD    1210084937
        0x0000300c:    20647261    ard     DCD    543453793
        0x00003010:    6c756146    Faul    DCD    1819631942
        0x00003014:    61482074    t Ha    DCD    1632116852
        0x00003018:    656c646e    ndle    DCD    1701602414
        0x0000301c:    00000a72    r...    DCD    2674
    $t
    i.SVPWM_2R
    SVPWM_2R
        0x00003020:    b5f0        ..      PUSH     {r4-r7,lr}
        0x00003022:    469c        .F      MOV      r12,r3
        0x00003024:    460d        .F      MOV      r5,r1
        0x00003026:    4343        CC      MULS     r3,r0,r3
        0x00003028:    4355        UC      MULS     r5,r2,r5
        0x0000302a:    1b5b        [.      SUBS     r3,r3,r5
        0x0000302c:    13dd        ..      ASRS     r5,r3,#15
        0x0000302e:    b086        ..      SUB      sp,sp,#0x18
        0x00003030:    9505        ..      STR      r5,[sp,#0x14]
        0x00003032:    4603        .F      MOV      r3,r0
        0x00003034:    4665        eF      MOV      r5,r12
        0x00003036:    4353        SC      MULS     r3,r2,r3
        0x00003038:    434d        MC      MULS     r5,r1,r5
        0x0000303a:    195b        [.      ADDS     r3,r3,r5
        0x0000303c:    4e6a        jN      LDR      r6,[pc,#424] ; [0x31e8] = 0x6ed9
        0x0000303e:    9d05        ..      LDR      r5,[sp,#0x14]
        0x00003040:    13db        ..      ASRS     r3,r3,#15
        0x00003042:    4375        uC      MULS     r5,r6,r5
        0x00003044:    039e        ..      LSLS     r6,r3,#14
        0x00003046:    1baf        ..      SUBS     r7,r5,r6
        0x00003048:    1975        u.      ADDS     r5,r6,r5
        0x0000304a:    426d        mB      RSBS     r5,r5,#0
        0x0000304c:    13ed        ..      ASRS     r5,r5,#15
        0x0000304e:    13ff        ..      ASRS     r7,r7,#15
        0x00003050:    9502        ..      STR      r5,[sp,#8]
        0x00003052:    9c0d        ..      LDR      r4,[sp,#0x34]
        0x00003054:    2500        .%      MOVS     r5,#0
        0x00003056:    9703        ..      STR      r7,[sp,#0xc]
        0x00003058:    469e        .F      MOV      lr,r3
        0x0000305a:    8025        %.      STRH     r5,[r4,#0]
        0x0000305c:    2b00        .+      CMP      r3,#0
        0x0000305e:    db01        ..      BLT      0x3064 ; SVPWM_2R + 68
        0x00003060:    2501        .%      MOVS     r5,#1
        0x00003062:    8025        %.      STRH     r5,[r4,#0]
        0x00003064:    9d03        ..      LDR      r5,[sp,#0xc]
        0x00003066:    2d00        .-      CMP      r5,#0
        0x00003068:    db02        ..      BLT      0x3070 ; SVPWM_2R + 80
        0x0000306a:    8825        %.      LDRH     r5,[r4,#0]
        0x0000306c:    1cad        ..      ADDS     r5,r5,#2
        0x0000306e:    8025        %.      STRH     r5,[r4,#0]
        0x00003070:    9d02        ..      LDR      r5,[sp,#8]
        0x00003072:    2d00        .-      CMP      r5,#0
        0x00003074:    db02        ..      BLT      0x307c ; SVPWM_2R + 92
        0x00003076:    8825        %.      LDRH     r5,[r4,#0]
        0x00003078:    1d2d        -.      ADDS     r5,r5,#4
        0x0000307a:    8025        %.      STRH     r5,[r4,#0]
        0x0000307c:    9304        ..      STR      r3,[sp,#0x10]
        0x0000307e:    9b02        ..      LDR      r3,[sp,#8]
        0x00003080:    425f        _B      RSBS     r7,r3,#0
        0x00003082:    9b03        ..      LDR      r3,[sp,#0xc]
        0x00003084:    425b        [B      RSBS     r3,r3,#0
        0x00003086:    9301        ..      STR      r3,[sp,#4]
        0x00003088:    8825        %.      LDRH     r5,[r4,#0]
        0x0000308a:    2d01        .-      CMP      r5,#1
        0x0000308c:    d07b        {.      BEQ      0x3186 ; SVPWM_2R + 358
        0x0000308e:    4603        .F      MOV      r3,r0
        0x00003090:    4666        fF      MOV      r6,r12
        0x00003092:    4353        SC      MULS     r3,r2,r3
        0x00003094:    434e        NC      MULS     r6,r1,r6
        0x00003096:    199b        ..      ADDS     r3,r3,r6
        0x00003098:    13db        ..      ASRS     r3,r3,#15
        0x0000309a:    425b        [B      RSBS     r3,r3,#0
        0x0000309c:    9300        ..      STR      r3,[sp,#0]
        0x0000309e:    2d02        .-      CMP      r5,#2
        0x000030a0:    d073        s.      BEQ      0x318a ; SVPWM_2R + 362
        0x000030a2:    4663        cF      MOV      r3,r12
        0x000030a4:    460e        .F      MOV      r6,r1
        0x000030a6:    4343        CC      MULS     r3,r0,r3
        0x000030a8:    4356        VC      MULS     r6,r2,r6
        0x000030aa:    1b9b        ..      SUBS     r3,r3,r6
        0x000030ac:    13df        ..      ASRS     r7,r3,#15
        0x000030ae:    4b4e        NK      LDR      r3,[pc,#312] ; [0x31e8] = 0x6ed9
        0x000030b0:    4606        .F      MOV      r6,r0
        0x000030b2:    435f        _C      MULS     r7,r3,r7
        0x000030b4:    4663        cF      MOV      r3,r12
        0x000030b6:    4356        VC      MULS     r6,r2,r6
        0x000030b8:    434b        KC      MULS     r3,r1,r3
        0x000030ba:    18f3        ..      ADDS     r3,r6,r3
        0x000030bc:    13db        ..      ASRS     r3,r3,#15
        0x000030be:    039b        ..      LSLS     r3,r3,#14
        0x000030c0:    1afb        ..      SUBS     r3,r7,r3
        0x000030c2:    13db        ..      ASRS     r3,r3,#15
        0x000030c4:    425b        [B      RSBS     r3,r3,#0
        0x000030c6:    425f        _B      RSBS     r7,r3,#0
        0x000030c8:    2d03        .-      CMP      r5,#3
        0x000030ca:    d061        a.      BEQ      0x3190 ; SVPWM_2R + 368
        0x000030cc:    2d04        .-      CMP      r5,#4
        0x000030ce:    d062        b.      BEQ      0x3196 ; SVPWM_2R + 374
        0x000030d0:    4666        fF      MOV      r6,r12
        0x000030d2:    4603        .F      MOV      r3,r0
        0x000030d4:    434e        NC      MULS     r6,r1,r6
        0x000030d6:    4353        SC      MULS     r3,r2,r3
        0x000030d8:    199b        ..      ADDS     r3,r3,r6
        0x000030da:    4666        fF      MOV      r6,r12
        0x000030dc:    4370        pC      MULS     r0,r6,r0
        0x000030de:    4351        QC      MULS     r1,r2,r1
        0x000030e0:    1a40        @.      SUBS     r0,r0,r1
        0x000030e2:    4941        AI      LDR      r1,[pc,#260] ; [0x31e8] = 0x6ed9
        0x000030e4:    13db        ..      ASRS     r3,r3,#15
        0x000030e6:    13c0        ..      ASRS     r0,r0,#15
        0x000030e8:    039b        ..      LSLS     r3,r3,#14
        0x000030ea:    4348        HC      MULS     r0,r1,r0
        0x000030ec:    1818        ..      ADDS     r0,r3,r0
        0x000030ee:    4240        @B      RSBS     r0,r0,#0
        0x000030f0:    13c0        ..      ASRS     r0,r0,#15
        0x000030f2:    4240        @B      RSBS     r0,r0,#0
        0x000030f4:    4241        AB      RSBS     r1,r0,#0
        0x000030f6:    2d05        .-      CMP      r5,#5
        0x000030f8:    d050        P.      BEQ      0x319c ; SVPWM_2R + 380
        0x000030fa:    4608        .F      MOV      r0,r1
        0x000030fc:    493b        ;I      LDR      r1,[pc,#236] ; [0x31ec] = 0x7fff
        0x000030fe:    19c2        ..      ADDS     r2,r0,r7
        0x00003100:    428a        .B      CMP      r2,r1
        0x00003102:    dd09        ..      BLE      0x3118 ; SVPWM_2R + 248
        0x00003104:    493a        :I      LDR      r1,[pc,#232] ; [0x31f0] = 0x50014000
        0x00003106:    0380        ..      LSLS     r0,r0,#14
        0x00003108:    6008        .`      STR      r0,[r1,#0]
        0x0000310a:    1052        R.      ASRS     r2,r2,#1
        0x0000310c:    604a        J`      STR      r2,[r1,#4]
        0x0000310e:    6888        .h      LDR      r0,[r1,#8]
        0x00003110:    03bb        ..      LSLS     r3,r7,#14
        0x00003112:    600b        .`      STR      r3,[r1,#0]
        0x00003114:    604a        J`      STR      r2,[r1,#4]
        0x00003116:    688f        .h      LDR      r7,[r1,#8]
        0x00003118:    990b        ..      LDR      r1,[sp,#0x2c]
        0x0000311a:    4348        HC      MULS     r0,r1,r0
        0x0000311c:    434f        OC      MULS     r7,r1,r7
        0x0000311e:    13c0        ..      ASRS     r0,r0,#15
        0x00003120:    13fa        ..      ASRS     r2,r7,#15
        0x00003122:    1a09        ..      SUBS     r1,r1,r0
        0x00003124:    1a89        ..      SUBS     r1,r1,r2
        0x00003126:    0fcb        ..      LSRS     r3,r1,#31
        0x00003128:    1859        Y.      ADDS     r1,r3,r1
        0x0000312a:    1049        I.      ASRS     r1,r1,#1
        0x0000312c:    1808        ..      ADDS     r0,r1,r0
        0x0000312e:    8823        #.      LDRH     r3,[r4,#0]
        0x00003130:    1882        ..      ADDS     r2,r0,r2
        0x00003132:    2b01        .+      CMP      r3,#1
        0x00003134:    d035        5.      BEQ      0x31a2 ; SVPWM_2R + 386
        0x00003136:    2b02        .+      CMP      r3,#2
        0x00003138:    d038        8.      BEQ      0x31ac ; SVPWM_2R + 396
        0x0000313a:    2b03        .+      CMP      r3,#3
        0x0000313c:    d03b        ;.      BEQ      0x31b6 ; SVPWM_2R + 406
        0x0000313e:    2b04        .+      CMP      r3,#4
        0x00003140:    d040        @.      BEQ      0x31c4 ; SVPWM_2R + 420
        0x00003142:    2b05        .+      CMP      r3,#5
        0x00003144:    d043        C.      BEQ      0x31ce ; SVPWM_2R + 430
        0x00003146:    2b06        .+      CMP      r3,#6
        0x00003148:    d046        F.      BEQ      0x31d8 ; SVPWM_2R + 440
        0x0000314a:    980b        ..      LDR      r0,[sp,#0x2c]
        0x0000314c:    0fc1        ..      LSRS     r1,r0,#31
        0x0000314e:    1808        ..      ADDS     r0,r1,r0
        0x00003150:    03c0        ..      LSLS     r0,r0,#15
        0x00003152:    990e        ..      LDR      r1,[sp,#0x38]
        0x00003154:    0c00        ..      LSRS     r0,r0,#16
        0x00003156:    8008        ..      STRH     r0,[r1,#0]
        0x00003158:    990f        ..      LDR      r1,[sp,#0x3c]
        0x0000315a:    8008        ..      STRH     r0,[r1,#0]
        0x0000315c:    9910        ..      LDR      r1,[sp,#0x40]
        0x0000315e:    8008        ..      STRH     r0,[r1,#0]
        0x00003160:    980c        ..      LDR      r0,[sp,#0x30]
        0x00003162:    9905        ..      LDR      r1,[sp,#0x14]
        0x00003164:    3040        @0      ADDS     r0,r0,#0x40
        0x00003166:    8301        ..      STRH     r1,[r0,#0x18]
        0x00003168:    4671        qF      MOV      r1,lr
        0x0000316a:    8341        A.      STRH     r1,[r0,#0x1a]
        0x0000316c:    8381        ..      STRH     r1,[r0,#0x1c]
        0x0000316e:    9903        ..      LDR      r1,[sp,#0xc]
        0x00003170:    83c1        ..      STRH     r1,[r0,#0x1e]
        0x00003172:    980c        ..      LDR      r0,[sp,#0x30]
        0x00003174:    9902        ..      LDR      r1,[sp,#8]
        0x00003176:    3060        `0      ADDS     r0,r0,#0x60
        0x00003178:    8001        ..      STRH     r1,[r0,#0]
        0x0000317a:    7821        !x      LDRB     r1,[r4,#0]
        0x0000317c:    7501        .u      STRB     r1,[r0,#0x14]
        0x0000317e:    b006        ..      ADD      sp,sp,#0x18
        0x00003180:    bdf0        ..      POP      {r4-r7,pc}
        0x00003182:    e000        ..      B        0x3186 ; SVPWM_2R + 358
        0x00003184:    e001        ..      B        0x318a ; SVPWM_2R + 362
        0x00003186:    4618        .F      MOV      r0,r3
        0x00003188:    e7b8        ..      B        0x30fc ; SVPWM_2R + 220
        0x0000318a:    4638        8F      MOV      r0,r7
        0x0000318c:    461f        .F      MOV      r7,r3
        0x0000318e:    e7b5        ..      B        0x30fc ; SVPWM_2R + 220
        0x00003190:    4638        8F      MOV      r0,r7
        0x00003192:    4677        wF      MOV      r7,lr
        0x00003194:    e7b2        ..      B        0x30fc ; SVPWM_2R + 220
        0x00003196:    9f01        ..      LDR      r7,[sp,#4]
        0x00003198:    9800        ..      LDR      r0,[sp,#0]
        0x0000319a:    e7af        ..      B        0x30fc ; SVPWM_2R + 220
        0x0000319c:    4670        pF      MOV      r0,lr
        0x0000319e:    460f        .F      MOV      r7,r1
        0x000031a0:    e7ac        ..      B        0x30fc ; SVPWM_2R + 220
        0x000031a2:    9b0e        ..      LDR      r3,[sp,#0x38]
        0x000031a4:    8018        ..      STRH     r0,[r3,#0]
        0x000031a6:    980f        ..      LDR      r0,[sp,#0x3c]
        0x000031a8:    8001        ..      STRH     r1,[r0,#0]
        0x000031aa:    e008        ..      B        0x31be ; SVPWM_2R + 414
        0x000031ac:    9b0e        ..      LDR      r3,[sp,#0x38]
        0x000031ae:    8019        ..      STRH     r1,[r3,#0]
        0x000031b0:    990f        ..      LDR      r1,[sp,#0x3c]
        0x000031b2:    800a        ..      STRH     r2,[r1,#0]
        0x000031b4:    e7d2        ..      B        0x315c ; SVPWM_2R + 316
        0x000031b6:    9b0e        ..      LDR      r3,[sp,#0x38]
        0x000031b8:    8019        ..      STRH     r1,[r3,#0]
        0x000031ba:    990f        ..      LDR      r1,[sp,#0x3c]
        0x000031bc:    8008        ..      STRH     r0,[r1,#0]
        0x000031be:    9810        ..      LDR      r0,[sp,#0x40]
        0x000031c0:    8002        ..      STRH     r2,[r0,#0]
        0x000031c2:    e7cd        ..      B        0x3160 ; SVPWM_2R + 320
        0x000031c4:    9b0e        ..      LDR      r3,[sp,#0x38]
        0x000031c6:    801a        ..      STRH     r2,[r3,#0]
        0x000031c8:    9a0f        ..      LDR      r2,[sp,#0x3c]
        0x000031ca:    8010        ..      STRH     r0,[r2,#0]
        0x000031cc:    e008        ..      B        0x31e0 ; SVPWM_2R + 448
        0x000031ce:    9b0e        ..      LDR      r3,[sp,#0x38]
        0x000031d0:    801a        ..      STRH     r2,[r3,#0]
        0x000031d2:    9a0f        ..      LDR      r2,[sp,#0x3c]
        0x000031d4:    8011        ..      STRH     r1,[r2,#0]
        0x000031d6:    e7c1        ..      B        0x315c ; SVPWM_2R + 316
        0x000031d8:    9b0e        ..      LDR      r3,[sp,#0x38]
        0x000031da:    8018        ..      STRH     r0,[r3,#0]
        0x000031dc:    980f        ..      LDR      r0,[sp,#0x3c]
        0x000031de:    8002        ..      STRH     r2,[r0,#0]
        0x000031e0:    9810        ..      LDR      r0,[sp,#0x40]
        0x000031e2:    8001        ..      STRH     r1,[r0,#0]
        0x000031e4:    e7bc        ..      B        0x3160 ; SVPWM_2R + 320
    $d
        0x000031e6:    0000        ..      DCW    0
        0x000031e8:    00006ed9    .n..    DCD    28377
        0x000031ec:    00007fff    ....    DCD    32767
        0x000031f0:    50014000    .@.P    DCD    1342259200
    $t
    i.SendChar_ToUART
    SendChar_ToUART
        0x000031f4:    4906        .I      LDR      r1,[pc,#24] ; [0x3210] = 0x40070000
        0x000031f6:    6bca        .k      LDR      r2,[r1,#0x3c]
        0x000031f8:    0592        ..      LSLS     r2,r2,#22
        0x000031fa:    d4fc        ..      BMI      0x31f6 ; SendChar_ToUART + 2
        0x000031fc:    6308        .c      STR      r0,[r1,#0x30]
        0x000031fe:    280a        .(      CMP      r0,#0xa
        0x00003200:    d104        ..      BNE      0x320c ; SendChar_ToUART + 24
        0x00003202:    6bc8        .k      LDR      r0,[r1,#0x3c]
        0x00003204:    0580        ..      LSLS     r0,r0,#22
        0x00003206:    d4fc        ..      BMI      0x3202 ; SendChar_ToUART + 14
        0x00003208:    200d        .       MOVS     r0,#0xd
        0x0000320a:    6308        .c      STR      r0,[r1,#0x30]
        0x0000320c:    4770        pG      BX       lr
    $d
        0x0000320e:    0000        ..      DCW    0
        0x00003210:    40070000    ...@    DCD    1074200576
    $t
    i.__0printf$5
    __0printf$5
    __1printf$5
    __2printf
        0x00003214:    b40f        ..      PUSH     {r0-r3}
        0x00003216:    b510        ..      PUSH     {r4,lr}
        0x00003218:    a903        ..      ADD      r1,sp,#0xc
        0x0000321a:    4b04        .K      LDR      r3,[pc,#16] ; [0x322c] = 0x3531
        0x0000321c:    4a04        .J      LDR      r2,[pc,#16] ; [0x3230] = 0x20000000
        0x0000321e:    9802        ..      LDR      r0,[sp,#8]
        0x00003220:    f000f818    ....    BL       _printf_core ; 0x3254
        0x00003224:    bc10        ..      POP      {r4}
        0x00003226:    bc08        ..      POP      {r3}
        0x00003228:    b004        ..      ADD      sp,sp,#0x10
        0x0000322a:    4718        .G      BX       r3
    $d
        0x0000322c:    00003531    15..    DCD    13617
        0x00003230:    20000000    ...     DCD    536870912
    $t
    i.__scatterload_copy
    __scatterload_copy
        0x00003234:    e002        ..      B        0x323c ; __scatterload_copy + 8
        0x00003236:    c808        ..      LDM      r0!,{r3}
        0x00003238:    1f12        ..      SUBS     r2,r2,#4
        0x0000323a:    c108        ..      STM      r1!,{r3}
        0x0000323c:    2a00        .*      CMP      r2,#0
        0x0000323e:    d1fa        ..      BNE      0x3236 ; __scatterload_copy + 2
        0x00003240:    4770        pG      BX       lr
    i.__scatterload_null
    __scatterload_null
        0x00003242:    4770        pG      BX       lr
    i.__scatterload_zeroinit
    __scatterload_zeroinit
        0x00003244:    2000        .       MOVS     r0,#0
        0x00003246:    e001        ..      B        0x324c ; __scatterload_zeroinit + 8
        0x00003248:    c101        ..      STM      r1!,{r0}
        0x0000324a:    1f12        ..      SUBS     r2,r2,#4
        0x0000324c:    2a00        .*      CMP      r2,#0
        0x0000324e:    d1fb        ..      BNE      0x3248 ; __scatterload_zeroinit + 4
        0x00003250:    4770        pG      BX       lr
        0x00003252:    0000        ..      MOVS     r0,r0
    i._printf_core
    _printf_core
        0x00003254:    b5ff        ..      PUSH     {r0-r7,lr}
        0x00003256:    b08f        ..      SUB      sp,sp,#0x3c
        0x00003258:    460f        .F      MOV      r7,r1
        0x0000325a:    4604        .F      MOV      r4,r0
        0x0000325c:    2600        .&      MOVS     r6,#0
        0x0000325e:    e006        ..      B        0x326e ; _printf_core + 26
        0x00003260:    2825        %(      CMP      r0,#0x25
        0x00003262:    d00a        ..      BEQ      0x327a ; _printf_core + 38
        0x00003264:    9a12        ..      LDR      r2,[sp,#0x48]
        0x00003266:    9911        ..      LDR      r1,[sp,#0x44]
        0x00003268:    4790        .G      BLX      r2
        0x0000326a:    1c64        d.      ADDS     r4,r4,#1
        0x0000326c:    1c76        v.      ADDS     r6,r6,#1
        0x0000326e:    7820         x      LDRB     r0,[r4,#0]
        0x00003270:    2800        .(      CMP      r0,#0
        0x00003272:    d1f5        ..      BNE      0x3260 ; _printf_core + 12
        0x00003274:    4630        0F      MOV      r0,r6
        0x00003276:    b013        ..      ADD      sp,sp,#0x4c
        0x00003278:    bdf0        ..      POP      {r4-r7,pc}
        0x0000327a:    2500        .%      MOVS     r5,#0
        0x0000327c:    2101        .!      MOVS     r1,#1
        0x0000327e:    4aa1        .J      LDR      r2,[pc,#644] ; [0x3504] = 0x12809
        0x00003280:    9500        ..      STR      r5,[sp,#0]
        0x00003282:    e000        ..      B        0x3286 ; _printf_core + 50
        0x00003284:    4305        .C      ORRS     r5,r5,r0
        0x00003286:    1c64        d.      ADDS     r4,r4,#1
        0x00003288:    7823        #x      LDRB     r3,[r4,#0]
        0x0000328a:    4608        .F      MOV      r0,r1
        0x0000328c:    3b20         ;      SUBS     r3,r3,#0x20
        0x0000328e:    4098        .@      LSLS     r0,r0,r3
        0x00003290:    4210        .B      TST      r0,r2
        0x00003292:    d1f7        ..      BNE      0x3284 ; _printf_core + 48
        0x00003294:    7820         x      LDRB     r0,[r4,#0]
        0x00003296:    282e        .(      CMP      r0,#0x2e
        0x00003298:    d115        ..      BNE      0x32c6 ; _printf_core + 114
        0x0000329a:    2004        .       MOVS     r0,#4
        0x0000329c:    4305        .C      ORRS     r5,r5,r0
        0x0000329e:    7860        `x      LDRB     r0,[r4,#1]
        0x000032a0:    1c64        d.      ADDS     r4,r4,#1
        0x000032a2:    282a        *(      CMP      r0,#0x2a
        0x000032a4:    d10a        ..      BNE      0x32bc ; _printf_core + 104
        0x000032a6:    cf01        ..      LDM      r7!,{r0}
        0x000032a8:    1c64        d.      ADDS     r4,r4,#1
        0x000032aa:    9000        ..      STR      r0,[sp,#0]
        0x000032ac:    e00b        ..      B        0x32c6 ; _printf_core + 114
        0x000032ae:    9900        ..      LDR      r1,[sp,#0]
        0x000032b0:    220a        ."      MOVS     r2,#0xa
        0x000032b2:    4351        QC      MULS     r1,r2,r1
        0x000032b4:    3930        09      SUBS     r1,r1,#0x30
        0x000032b6:    1840        @.      ADDS     r0,r0,r1
        0x000032b8:    1c64        d.      ADDS     r4,r4,#1
        0x000032ba:    9000        ..      STR      r0,[sp,#0]
        0x000032bc:    7820         x      LDRB     r0,[r4,#0]
        0x000032be:    4601        .F      MOV      r1,r0
        0x000032c0:    3930        09      SUBS     r1,r1,#0x30
        0x000032c2:    2909        .)      CMP      r1,#9
        0x000032c4:    d9f3        ..      BLS      0x32ae ; _printf_core + 90
        0x000032c6:    7820         x      LDRB     r0,[r4,#0]
        0x000032c8:    286c        l(      CMP      r0,#0x6c
        0x000032ca:    d00e        ..      BEQ      0x32ea ; _printf_core + 150
        0x000032cc:    dc04        ..      BGT      0x32d8 ; _printf_core + 132
        0x000032ce:    284c        L(      CMP      r0,#0x4c
        0x000032d0:    d013        ..      BEQ      0x32fa ; _printf_core + 166
        0x000032d2:    286a        j(      CMP      r0,#0x6a
        0x000032d4:    d112        ..      BNE      0x32fc ; _printf_core + 168
        0x000032d6:    e004        ..      B        0x32e2 ; _printf_core + 142
        0x000032d8:    2874        t(      CMP      r0,#0x74
        0x000032da:    d00e        ..      BEQ      0x32fa ; _printf_core + 166
        0x000032dc:    287a        z(      CMP      r0,#0x7a
        0x000032de:    d10d        ..      BNE      0x32fc ; _printf_core + 168
        0x000032e0:    e00b        ..      B        0x32fa ; _printf_core + 166
        0x000032e2:    2001        .       MOVS     r0,#1
        0x000032e4:    0540        @.      LSLS     r0,r0,#21
        0x000032e6:    4305        .C      ORRS     r5,r5,r0
        0x000032e8:    e007        ..      B        0x32fa ; _printf_core + 166
        0x000032ea:    2101        .!      MOVS     r1,#1
        0x000032ec:    0509        ..      LSLS     r1,r1,#20
        0x000032ee:    7862        bx      LDRB     r2,[r4,#1]
        0x000032f0:    430d        .C      ORRS     r5,r5,r1
        0x000032f2:    4282        .B      CMP      r2,r0
        0x000032f4:    d101        ..      BNE      0x32fa ; _printf_core + 166
        0x000032f6:    186d        m.      ADDS     r5,r5,r1
        0x000032f8:    1c64        d.      ADDS     r4,r4,#1
        0x000032fa:    1c64        d.      ADDS     r4,r4,#1
        0x000032fc:    7820         x      LDRB     r0,[r4,#0]
        0x000032fe:    4686        .F      MOV      lr,r0
        0x00003300:    2869        i(      CMP      r0,#0x69
        0x00003302:    d04a        J.      BEQ      0x339a ; _printf_core + 326
        0x00003304:    dc08        ..      BGT      0x3318 ; _printf_core + 196
        0x00003306:    2800        .(      CMP      r0,#0
        0x00003308:    d0b4        ..      BEQ      0x3274 ; _printf_core + 32
        0x0000330a:    2858        X(      CMP      r0,#0x58
        0x0000330c:    d06d        m.      BEQ      0x33ea ; _printf_core + 406
        0x0000330e:    2863        c(      CMP      r0,#0x63
        0x00003310:    d010        ..      BEQ      0x3334 ; _printf_core + 224
        0x00003312:    2864        d(      CMP      r0,#0x64
        0x00003314:    d108        ..      BNE      0x3328 ; _printf_core + 212
        0x00003316:    e040        @.      B        0x339a ; _printf_core + 326
        0x00003318:    2870        p(      CMP      r0,#0x70
        0x0000331a:    d06b        k.      BEQ      0x33f4 ; _printf_core + 416
        0x0000331c:    2873        s(      CMP      r0,#0x73
        0x0000331e:    d012        ..      BEQ      0x3346 ; _printf_core + 242
        0x00003320:    2875        u(      CMP      r0,#0x75
        0x00003322:    d060        `.      BEQ      0x33e6 ; _printf_core + 402
        0x00003324:    2878        x(      CMP      r0,#0x78
        0x00003326:    d060        `.      BEQ      0x33ea ; _printf_core + 406
        0x00003328:    9a12        ..      LDR      r2,[sp,#0x48]
        0x0000332a:    4670        pF      MOV      r0,lr
        0x0000332c:    9911        ..      LDR      r1,[sp,#0x44]
        0x0000332e:    4790        .G      BLX      r2
        0x00003330:    1c76        v.      ADDS     r6,r6,#1
        0x00003332:    e0e5        ..      B        0x3500 ; _printf_core + 684
        0x00003334:    7838        8x      LDRB     r0,[r7,#0]
        0x00003336:    4669        iF      MOV      r1,sp
        0x00003338:    7208        .r      STRB     r0,[r1,#8]
        0x0000333a:    2000        .       MOVS     r0,#0
        0x0000333c:    7248        Hr      STRB     r0,[r1,#9]
        0x0000333e:    a802        ..      ADD      r0,sp,#8
        0x00003340:    9001        ..      STR      r0,[sp,#4]
        0x00003342:    2001        .       MOVS     r0,#1
        0x00003344:    e003        ..      B        0x334e ; _printf_core + 250
        0x00003346:    6838        8h      LDR      r0,[r7,#0]
        0x00003348:    9001        ..      STR      r0,[sp,#4]
        0x0000334a:    2000        .       MOVS     r0,#0
        0x0000334c:    43c0        .C      MVNS     r0,r0
        0x0000334e:    1d3f        ?.      ADDS     r7,r7,#4
        0x00003350:    0769        i.      LSLS     r1,r5,#29
        0x00003352:    d50c        ..      BPL      0x336e ; _printf_core + 282
        0x00003354:    2500        .%      MOVS     r5,#0
        0x00003356:    e000        ..      B        0x335a ; _printf_core + 262
        0x00003358:    1c6d        m.      ADDS     r5,r5,#1
        0x0000335a:    9900        ..      LDR      r1,[sp,#0]
        0x0000335c:    428d        .B      CMP      r5,r1
        0x0000335e:    da0f        ..      BGE      0x3380 ; _printf_core + 300
        0x00003360:    4285        .B      CMP      r5,r0
        0x00003362:    dbf9        ..      BLT      0x3358 ; _printf_core + 260
        0x00003364:    9901        ..      LDR      r1,[sp,#4]
        0x00003366:    5d49        I]      LDRB     r1,[r1,r5]
        0x00003368:    2900        .)      CMP      r1,#0
        0x0000336a:    d1f5        ..      BNE      0x3358 ; _printf_core + 260
        0x0000336c:    e008        ..      B        0x3380 ; _printf_core + 300
        0x0000336e:    2500        .%      MOVS     r5,#0
        0x00003370:    e000        ..      B        0x3374 ; _printf_core + 288
        0x00003372:    1c6d        m.      ADDS     r5,r5,#1
        0x00003374:    4285        .B      CMP      r5,r0
        0x00003376:    dbfc        ..      BLT      0x3372 ; _printf_core + 286
        0x00003378:    9901        ..      LDR      r1,[sp,#4]
        0x0000337a:    5d49        I]      LDRB     r1,[r1,r5]
        0x0000337c:    2900        .)      CMP      r1,#0
        0x0000337e:    d1f8        ..      BNE      0x3372 ; _printf_core + 286
        0x00003380:    1976        v.      ADDS     r6,r6,r5
        0x00003382:    e007        ..      B        0x3394 ; _printf_core + 320
        0x00003384:    9801        ..      LDR      r0,[sp,#4]
        0x00003386:    9901        ..      LDR      r1,[sp,#4]
        0x00003388:    7800        .x      LDRB     r0,[r0,#0]
        0x0000338a:    1c49        I.      ADDS     r1,r1,#1
        0x0000338c:    9101        ..      STR      r1,[sp,#4]
        0x0000338e:    9a12        ..      LDR      r2,[sp,#0x48]
        0x00003390:    9911        ..      LDR      r1,[sp,#0x44]
        0x00003392:    4790        .G      BLX      r2
        0x00003394:    1e6d        m.      SUBS     r5,r5,#1
        0x00003396:    d2f5        ..      BCS      0x3384 ; _printf_core + 304
        0x00003398:    e0b2        ..      B        0x3500 ; _printf_core + 684
        0x0000339a:    200a        .       MOVS     r0,#0xa
        0x0000339c:    9002        ..      STR      r0,[sp,#8]
        0x0000339e:    2100        .!      MOVS     r1,#0
        0x000033a0:    0268        h.      LSLS     r0,r5,#9
        0x000033a2:    0f40        @.      LSRS     r0,r0,#29
        0x000033a4:    9103        ..      STR      r1,[sp,#0xc]
        0x000033a6:    2802        .(      CMP      r0,#2
        0x000033a8:    d00c        ..      BEQ      0x33c4 ; _printf_core + 368
        0x000033aa:    cf01        ..      LDM      r7!,{r0}
        0x000033ac:    17c1        ..      ASRS     r1,r0,#31
        0x000033ae:    4684        .F      MOV      r12,r0
        0x000033b0:    2900        .)      CMP      r1,#0
        0x000033b2:    da0d        ..      BGE      0x33d0 ; _printf_core + 380
        0x000033b4:    4662        bF      MOV      r2,r12
        0x000033b6:    4608        .F      MOV      r0,r1
        0x000033b8:    4252        RB      RSBS     r2,r2,#0
        0x000033ba:    2100        .!      MOVS     r1,#0
        0x000033bc:    4181        .A      SBCS     r1,r1,r0
        0x000033be:    4694        .F      MOV      r12,r2
        0x000033c0:    202d        -       MOVS     r0,#0x2d
        0x000033c2:    e008        ..      B        0x33d6 ; _printf_core + 386
        0x000033c4:    1dff        ..      ADDS     r7,r7,#7
        0x000033c6:    08ff        ..      LSRS     r7,r7,#3
        0x000033c8:    00ff        ..      LSLS     r7,r7,#3
        0x000033ca:    cf03        ..      LDM      r7!,{r0,r1}
        0x000033cc:    4684        .F      MOV      r12,r0
        0x000033ce:    e7ef        ..      B        0x33b0 ; _printf_core + 348
        0x000033d0:    0528        (.      LSLS     r0,r5,#20
        0x000033d2:    d504        ..      BPL      0x33de ; _printf_core + 394
        0x000033d4:    202b        +       MOVS     r0,#0x2b
        0x000033d6:    466a        jF      MOV      r2,sp
        0x000033d8:    7410        .t      STRB     r0,[r2,#0x10]
        0x000033da:    2001        .       MOVS     r0,#1
        0x000033dc:    e03c        <.      B        0x3458 ; _printf_core + 516
        0x000033de:    07e8        ..      LSLS     r0,r5,#31
        0x000033e0:    d03a        :.      BEQ      0x3458 ; _printf_core + 516
        0x000033e2:    2020                MOVS     r0,#0x20
        0x000033e4:    e7f7        ..      B        0x33d6 ; _printf_core + 386
        0x000033e6:    200a        .       MOVS     r0,#0xa
        0x000033e8:    e000        ..      B        0x33ec ; _printf_core + 408
        0x000033ea:    2010        .       MOVS     r0,#0x10
        0x000033ec:    2100        .!      MOVS     r1,#0
        0x000033ee:    9103        ..      STR      r1,[sp,#0xc]
        0x000033f0:    9002        ..      STR      r0,[sp,#8]
        0x000033f2:    e007        ..      B        0x3404 ; _printf_core + 432
        0x000033f4:    2010        .       MOVS     r0,#0x10
        0x000033f6:    9002        ..      STR      r0,[sp,#8]
        0x000033f8:    2100        .!      MOVS     r1,#0
        0x000033fa:    2004        .       MOVS     r0,#4
        0x000033fc:    4305        .C      ORRS     r5,r5,r0
        0x000033fe:    2008        .       MOVS     r0,#8
        0x00003400:    9103        ..      STR      r1,[sp,#0xc]
        0x00003402:    9000        ..      STR      r0,[sp,#0]
        0x00003404:    0268        h.      LSLS     r0,r5,#9
        0x00003406:    0f40        @.      LSRS     r0,r0,#29
        0x00003408:    2802        .(      CMP      r0,#2
        0x0000340a:    d010        ..      BEQ      0x342e ; _printf_core + 474
        0x0000340c:    cf01        ..      LDM      r7!,{r0}
        0x0000340e:    2100        .!      MOVS     r1,#0
        0x00003410:    4684        .F      MOV      r12,r0
        0x00003412:    2000        .       MOVS     r0,#0
        0x00003414:    900d        ..      STR      r0,[sp,#0x34]
        0x00003416:    0728        (.      LSLS     r0,r5,#28
        0x00003418:    d51f        ..      BPL      0x345a ; _printf_core + 518
        0x0000341a:    4670        pF      MOV      r0,lr
        0x0000341c:    2870        p(      CMP      r0,#0x70
        0x0000341e:    d00c        ..      BEQ      0x343a ; _printf_core + 486
        0x00003420:    9a02        ..      LDR      r2,[sp,#8]
        0x00003422:    2010        .       MOVS     r0,#0x10
        0x00003424:    9b03        ..      LDR      r3,[sp,#0xc]
        0x00003426:    4042        B@      EORS     r2,r2,r0
        0x00003428:    431a        .C      ORRS     r2,r2,r3
        0x0000342a:    d00c        ..      BEQ      0x3446 ; _printf_core + 498
        0x0000342c:    e015        ..      B        0x345a ; _printf_core + 518
        0x0000342e:    1dff        ..      ADDS     r7,r7,#7
        0x00003430:    08ff        ..      LSRS     r7,r7,#3
        0x00003432:    00ff        ..      LSLS     r7,r7,#3
        0x00003434:    cf03        ..      LDM      r7!,{r0,r1}
        0x00003436:    4684        .F      MOV      r12,r0
        0x00003438:    e7eb        ..      B        0x3412 ; _printf_core + 446
        0x0000343a:    2040        @       MOVS     r0,#0x40
        0x0000343c:    466a        jF      MOV      r2,sp
        0x0000343e:    7410        .t      STRB     r0,[r2,#0x10]
        0x00003440:    2001        .       MOVS     r0,#1
        0x00003442:    900d        ..      STR      r0,[sp,#0x34]
        0x00003444:    e00c        ..      B        0x3460 ; _printf_core + 524
        0x00003446:    4660        `F      MOV      r0,r12
        0x00003448:    4308        .C      ORRS     r0,r0,r1
        0x0000344a:    d006        ..      BEQ      0x345a ; _printf_core + 518
        0x0000344c:    2030        0       MOVS     r0,#0x30
        0x0000344e:    466a        jF      MOV      r2,sp
        0x00003450:    7410        .t      STRB     r0,[r2,#0x10]
        0x00003452:    4670        pF      MOV      r0,lr
        0x00003454:    7450        Pt      STRB     r0,[r2,#0x11]
        0x00003456:    2002        .       MOVS     r0,#2
        0x00003458:    900d        ..      STR      r0,[sp,#0x34]
        0x0000345a:    4670        pF      MOV      r0,lr
        0x0000345c:    2858        X(      CMP      r0,#0x58
        0x0000345e:    d004        ..      BEQ      0x346a ; _printf_core + 534
        0x00003460:    a029        ).      ADR      r0,{pc}+0xa8 ; 0x3508
        0x00003462:    9001        ..      STR      r0,[sp,#4]
        0x00003464:    a80d        ..      ADD      r0,sp,#0x34
        0x00003466:    900e        ..      STR      r0,[sp,#0x38]
        0x00003468:    e00d        ..      B        0x3486 ; _printf_core + 562
        0x0000346a:    a02c        ,.      ADR      r0,{pc}+0xb2 ; 0x351c
        0x0000346c:    e7f9        ..      B        0x3462 ; _printf_core + 526
        0x0000346e:    4660        `F      MOV      r0,r12
        0x00003470:    9b03        ..      LDR      r3,[sp,#0xc]
        0x00003472:    9a02        ..      LDR      r2,[sp,#8]
        0x00003474:    f7fcfea5    ....    BL       __aeabi_uldivmod ; 0x1c2
        0x00003478:    9b01        ..      LDR      r3,[sp,#4]
        0x0000347a:    4684        .F      MOV      r12,r0
        0x0000347c:    5c9b        .\      LDRB     r3,[r3,r2]
        0x0000347e:    9a0e        ..      LDR      r2,[sp,#0x38]
        0x00003480:    1e52        R.      SUBS     r2,r2,#1
        0x00003482:    920e        ..      STR      r2,[sp,#0x38]
        0x00003484:    7013        .p      STRB     r3,[r2,#0]
        0x00003486:    4660        `F      MOV      r0,r12
        0x00003488:    4308        .C      ORRS     r0,r0,r1
        0x0000348a:    d1f0        ..      BNE      0x346e ; _printf_core + 538
        0x0000348c:    980e        ..      LDR      r0,[sp,#0x38]
        0x0000348e:    a905        ..      ADD      r1,sp,#0x14
        0x00003490:    1a08        ..      SUBS     r0,r1,r0
        0x00003492:    3020         0      ADDS     r0,r0,#0x20
        0x00003494:    9001        ..      STR      r0,[sp,#4]
        0x00003496:    0768        h.      LSLS     r0,r5,#29
        0x00003498:    d501        ..      BPL      0x349e ; _printf_core + 586
        0x0000349a:    9800        ..      LDR      r0,[sp,#0]
        0x0000349c:    e001        ..      B        0x34a2 ; _printf_core + 590
        0x0000349e:    2001        .       MOVS     r0,#1
        0x000034a0:    9000        ..      STR      r0,[sp,#0]
        0x000034a2:    9901        ..      LDR      r1,[sp,#4]
        0x000034a4:    4288        .B      CMP      r0,r1
        0x000034a6:    dd03        ..      BLE      0x34b0 ; _printf_core + 604
        0x000034a8:    4601        .F      MOV      r1,r0
        0x000034aa:    9801        ..      LDR      r0,[sp,#4]
        0x000034ac:    1a08        ..      SUBS     r0,r1,r0
        0x000034ae:    e000        ..      B        0x34b2 ; _printf_core + 606
        0x000034b0:    2000        .       MOVS     r0,#0
        0x000034b2:    2500        .%      MOVS     r5,#0
        0x000034b4:    9000        ..      STR      r0,[sp,#0]
        0x000034b6:    e006        ..      B        0x34c6 ; _printf_core + 626
        0x000034b8:    a804        ..      ADD      r0,sp,#0x10
        0x000034ba:    9a12        ..      LDR      r2,[sp,#0x48]
        0x000034bc:    5d40        @]      LDRB     r0,[r0,r5]
        0x000034be:    9911        ..      LDR      r1,[sp,#0x44]
        0x000034c0:    4790        .G      BLX      r2
        0x000034c2:    1c6d        m.      ADDS     r5,r5,#1
        0x000034c4:    1c76        v.      ADDS     r6,r6,#1
        0x000034c6:    980d        ..      LDR      r0,[sp,#0x34]
        0x000034c8:    4285        .B      CMP      r5,r0
        0x000034ca:    dbf5        ..      BLT      0x34b8 ; _printf_core + 612
        0x000034cc:    e004        ..      B        0x34d8 ; _printf_core + 644
        0x000034ce:    9a12        ..      LDR      r2,[sp,#0x48]
        0x000034d0:    2030        0       MOVS     r0,#0x30
        0x000034d2:    9911        ..      LDR      r1,[sp,#0x44]
        0x000034d4:    4790        .G      BLX      r2
        0x000034d6:    1c76        v.      ADDS     r6,r6,#1
        0x000034d8:    9900        ..      LDR      r1,[sp,#0]
        0x000034da:    1e48        H.      SUBS     r0,r1,#1
        0x000034dc:    9000        ..      STR      r0,[sp,#0]
        0x000034de:    2900        .)      CMP      r1,#0
        0x000034e0:    dcf5        ..      BGT      0x34ce ; _printf_core + 634
        0x000034e2:    e008        ..      B        0x34f6 ; _printf_core + 674
        0x000034e4:    980e        ..      LDR      r0,[sp,#0x38]
        0x000034e6:    990e        ..      LDR      r1,[sp,#0x38]
        0x000034e8:    7800        .x      LDRB     r0,[r0,#0]
        0x000034ea:    1c49        I.      ADDS     r1,r1,#1
        0x000034ec:    910e        ..      STR      r1,[sp,#0x38]
        0x000034ee:    9a12        ..      LDR      r2,[sp,#0x48]
        0x000034f0:    9911        ..      LDR      r1,[sp,#0x44]
        0x000034f2:    4790        .G      BLX      r2
        0x000034f4:    1c76        v.      ADDS     r6,r6,#1
        0x000034f6:    9901        ..      LDR      r1,[sp,#4]
        0x000034f8:    1e48        H.      SUBS     r0,r1,#1
        0x000034fa:    9001        ..      STR      r0,[sp,#4]
        0x000034fc:    2900        .)      CMP      r1,#0
        0x000034fe:    dcf1        ..      BGT      0x34e4 ; _printf_core + 656
        0x00003500:    1c64        d.      ADDS     r4,r4,#1
        0x00003502:    e6b4        ..      B        0x326e ; _printf_core + 26
    $d
        0x00003504:    00012809    .(..    DCD    75785
        0x00003508:    33323130    0123    DCD    858927408
        0x0000350c:    37363534    4567    DCD    926299444
        0x00003510:    62613938    89ab    DCD    1650538808
        0x00003514:    66656463    cdef    DCD    1717920867
        0x00003518:    00000000    ....    DCD    0
        0x0000351c:    33323130    0123    DCD    858927408
        0x00003520:    37363534    4567    DCD    926299444
        0x00003524:    42413938    89AB    DCD    1111570744
        0x00003528:    46454443    CDEF    DCD    1178944579
        0x0000352c:    00000000    ....    DCD    0
    $t
    i.fputc
    fputc
        0x00003530:    b500        ..      PUSH     {lr}
        0x00003532:    4603        .F      MOV      r3,r0
        0x00003534:    f7fffe5e    ..^.    BL       SendChar_ToUART ; 0x31f4
        0x00003538:    4618        .F      MOV      r0,r3
        0x0000353a:    bd00        ..      POP      {pc}
    i.stackDump
    stackDump
        0x0000353c:    b510        ..      PUSH     {r4,lr}
        0x0000353e:    4604        .F      MOV      r4,r0
        0x00003540:    6801        .h      LDR      r1,[r0,#0]
        0x00003542:    a010        ..      ADR      r0,{pc}+0x42 ; 0x3584
        0x00003544:    f7fffe66    ..f.    BL       __0printf$5 ; 0x3214
        0x00003548:    a011        ..      ADR      r0,{pc}+0x48 ; 0x3590
        0x0000354a:    6861        ah      LDR      r1,[r4,#4]
        0x0000354c:    f7fffe62    ..b.    BL       __0printf$5 ; 0x3214
        0x00003550:    a012        ..      ADR      r0,{pc}+0x4c ; 0x359c
        0x00003552:    68a1        .h      LDR      r1,[r4,#8]
        0x00003554:    f7fffe5e    ..^.    BL       __0printf$5 ; 0x3214
        0x00003558:    a013        ..      ADR      r0,{pc}+0x50 ; 0x35a8
        0x0000355a:    68e1        .h      LDR      r1,[r4,#0xc]
        0x0000355c:    f7fffe5a    ..Z.    BL       __0printf$5 ; 0x3214
        0x00003560:    a014        ..      ADR      r0,{pc}+0x54 ; 0x35b4
        0x00003562:    6921        !i      LDR      r1,[r4,#0x10]
        0x00003564:    f7fffe56    ..V.    BL       __0printf$5 ; 0x3214
        0x00003568:    a015        ..      ADR      r0,{pc}+0x58 ; 0x35c0
        0x0000356a:    6961        ai      LDR      r1,[r4,#0x14]
        0x0000356c:    f7fffe52    ..R.    BL       __0printf$5 ; 0x3214
        0x00003570:    a016        ..      ADR      r0,{pc}+0x5c ; 0x35cc
        0x00003572:    69a1        .i      LDR      r1,[r4,#0x18]
        0x00003574:    f7fffe4e    ..N.    BL       __0printf$5 ; 0x3214
        0x00003578:    a017        ..      ADR      r0,{pc}+0x60 ; 0x35d8
        0x0000357a:    69e1        .i      LDR      r1,[r4,#0x1c]
        0x0000357c:    f7fffe4a    ..J.    BL       __0printf$5 ; 0x3214
        0x00003580:    bd10        ..      POP      {r4,pc}
    $d
        0x00003582:    0000        ..      DCW    0
        0x00003584:    20203072    r0      DCD    538980466
        0x00003588:    7830203d    = 0x    DCD    2016419901
        0x0000358c:    000a7825    %x..    DCD    686117
        0x00003590:    20203172    r1      DCD    538980722
        0x00003594:    7830203d    = 0x    DCD    2016419901
        0x00003598:    000a7825    %x..    DCD    686117
        0x0000359c:    20203272    r2      DCD    538980978
        0x000035a0:    7830203d    = 0x    DCD    2016419901
        0x000035a4:    000a7825    %x..    DCD    686117
        0x000035a8:    20203372    r3      DCD    538981234
        0x000035ac:    7830203d    = 0x    DCD    2016419901
        0x000035b0:    000a7825    %x..    DCD    686117
        0x000035b4:    20323172    r12     DCD    540160370
        0x000035b8:    7830203d    = 0x    DCD    2016419901
        0x000035bc:    000a7825    %x..    DCD    686117
        0x000035c0:    2020726c    lr      DCD    538997356
        0x000035c4:    7830203d    = 0x    DCD    2016419901
        0x000035c8:    000a7825    %x..    DCD    686117
        0x000035cc:    20206370    pc      DCD    538993520
        0x000035d0:    7830203d    = 0x    DCD    2016419901
        0x000035d4:    000a7825    %x..    DCD    686117
        0x000035d8:    20727370    psr     DCD    544371568
        0x000035dc:    7830203d    = 0x    DCD    2016419901
        0x000035e0:    000a7825    %x..    DCD    686117
    $d.realdata
    GROUP0_CMD_LIST
        0x000035e4:    6f746f4d    Moto    DCD    1869901645
        0x000035e8:    632e4172    rA.c    DCD    1663975794
        0x000035ec:    752e646d    md.u    DCD    1965974637
        0x000035f0:    69645f38    8_di    DCD    1768185656
        0x000035f4:    74636572    rect    DCD    1952671090
        0x000035f8:    0a6e6f69    ion.    DCD    175009641
        0x000035fc:    00000000    ....    DCD    0
        0x00003600:    00000000    ....    DCD    0
        0x00003604:    00000000    ....    DCD    0
        0x00003608:    00000000    ....    DCD    0
        0x0000360c:    00000000    ....    DCD    0
        0x00003610:    00000000    ....    DCD    0
        0x00003614:    00000000    ....    DCD    0
        0x00003618:    20000127    '..     DCD    536871207
        0x0000361c:    000000ff    ....    DCD    255
        0x00003620:    00000001    ....    DCD    1
        0x00003624:    00000000    ....    DCD    0
        0x00003628:    00000001    ....    DCD    1
        0x0000362c:    00000000    ....    DCD    0
        0x00003630:    6f746f4d    Moto    DCD    1869901645
        0x00003634:    632e4172    rA.c    DCD    1663975794
        0x00003638:    692e646d    md.i    DCD    1764648045
        0x0000363c:    725f3631    16_r    DCD    1918842417
        0x00003640:    726f746f    otor    DCD    1919906927
        0x00003644:    6570735f    _spe    DCD    1701868383
        0x00003648:    745f6465    ed_t    DCD    1952408677
        0x0000364c:    65677261    arge    DCD    1701278305
        0x00003650:    00000a74    t...    DCD    2676
        0x00003654:    00000000    ....    DCD    0
        0x00003658:    00000000    ....    DCD    0
        0x0000365c:    00000000    ....    DCD    0
        0x00003660:    00000000    ....    DCD    0
        0x00003664:    2000011e    ...     DCD    536871198
        0x00003668:    0000ffff    ....    DCD    65535
        0x0000366c:    000001f4    ....    DCD    500
        0x00003670:    00000000    ....    DCD    0
        0x00003674:    00000bb8    ....    DCD    3000
        0x00003678:    00000001    ....    DCD    1
        0x0000367c:    6f746f4d    Moto    DCD    1869901645
        0x00003680:    632e4172    rA.c    DCD    1663975794
        0x00003684:    692e646d    md.i    DCD    1764648045
        0x00003688:    445f3631    16_D    DCD    1147090481
        0x0000368c:    30797475    uty0    DCD    813266037
        0x00003690:    0000000a    ....    DCD    10
        0x00003694:    00000000    ....    DCD    0
        0x00003698:    00000000    ....    DCD    0
        0x0000369c:    00000000    ....    DCD    0
        0x000036a0:    00000000    ....    DCD    0
        0x000036a4:    00000000    ....    DCD    0
        0x000036a8:    00000000    ....    DCD    0
        0x000036ac:    00000000    ....    DCD    0
        0x000036b0:    20000116    ...     DCD    536871190
        0x000036b4:    0000ffff    ....    DCD    65535
        0x000036b8:    0000000a    ....    DCD    10
        0x000036bc:    00000000    ....    DCD    0
        0x000036c0:    00000064    d...    DCD    100
        0x000036c4:    00000001    ....    DCD    1
    GROUP1_CMD_LIST
        0x000036c8:    535f4950    PI_S    DCD    1398753616
        0x000036cc:    64656570    peed    DCD    1684366704
        0x000036d0:    5f706b2e    .kp_    DCD    1601202990
        0x000036d4:    000a3531    15..    DCD    668977
        0x000036d8:    00000000    ....    DCD    0
        0x000036dc:    00000000    ....    DCD    0
        0x000036e0:    00000000    ....    DCD    0
        0x000036e4:    00000000    ....    DCD    0
        0x000036e8:    00000000    ....    DCD    0
        0x000036ec:    00000000    ....    DCD    0
        0x000036f0:    00000000    ....    DCD    0
        0x000036f4:    00000000    ....    DCD    0
        0x000036f8:    00000000    ....    DCD    0
        0x000036fc:    20000054    T..     DCD    536870996
        0x00003700:    ffffffff    ....    DCD    4294967295
        0x00003704:    000007d0    ....    DCD    2000
        0x00003708:    00000000    ....    DCD    0
        0x0000370c:    7fffffff    ....    DCD    2147483647
        0x00003710:    00000000    ....    DCD    0
        0x00003714:    535f4950    PI_S    DCD    1398753616
        0x00003718:    64656570    peed    DCD    1684366704
        0x0000371c:    5f696b2e    .ki_    DCD    1600744238
        0x00003720:    000a3531    15..    DCD    668977
        0x00003724:    00000000    ....    DCD    0
        0x00003728:    00000000    ....    DCD    0
        0x0000372c:    00000000    ....    DCD    0
        0x00003730:    00000000    ....    DCD    0
        0x00003734:    00000000    ....    DCD    0
        0x00003738:    00000000    ....    DCD    0
        0x0000373c:    00000000    ....    DCD    0
        0x00003740:    00000000    ....    DCD    0
        0x00003744:    00000000    ....    DCD    0
        0x00003748:    20000058    X..     DCD    536871000
        0x0000374c:    ffffffff    ....    DCD    4294967295
        0x00003750:    00000032    2...    DCD    50
        0x00003754:    00000000    ....    DCD    0
        0x00003758:    7fffffff    ....    DCD    2147483647
        0x0000375c:    00000000    ....    DCD    0
    GROUP2_CMD_LIST
        0x00003760:    495f4950    PI_I    DCD    1230981456
        0x00003764:    706b2e71    q.kp    DCD    1886072433
        0x00003768:    0a35315f    _15.    DCD    171258207
        0x0000376c:    00000000    ....    DCD    0
        0x00003770:    00000000    ....    DCD    0
        0x00003774:    00000000    ....    DCD    0
        0x00003778:    00000000    ....    DCD    0
        0x0000377c:    00000000    ....    DCD    0
        0x00003780:    00000000    ....    DCD    0
        0x00003784:    00000000    ....    DCD    0
        0x00003788:    00000000    ....    DCD    0
        0x0000378c:    00000000    ....    DCD    0
        0x00003790:    00000000    ....    DCD    0
        0x00003794:    20000044    D..     DCD    536870980
        0x00003798:    ffffffff    ....    DCD    4294967295
        0x0000379c:    00000032    2...    DCD    50
        0x000037a0:    00000000    ....    DCD    0
        0x000037a4:    7fffffff    ....    DCD    2147483647
        0x000037a8:    00000000    ....    DCD    0
        0x000037ac:    495f4950    PI_I    DCD    1230981456
        0x000037b0:    696b2e71    q.ki    DCD    1768631921
        0x000037b4:    0a35315f    _15.    DCD    171258207
        0x000037b8:    00000000    ....    DCD    0
        0x000037bc:    00000000    ....    DCD    0
        0x000037c0:    00000000    ....    DCD    0
        0x000037c4:    00000000    ....    DCD    0
        0x000037c8:    00000000    ....    DCD    0
        0x000037cc:    00000000    ....    DCD    0
        0x000037d0:    00000000    ....    DCD    0
        0x000037d4:    00000000    ....    DCD    0
        0x000037d8:    00000000    ....    DCD    0
        0x000037dc:    00000000    ....    DCD    0
        0x000037e0:    20000048    H..     DCD    536870984
        0x000037e4:    ffffffff    ....    DCD    4294967295
        0x000037e8:    0000000a    ....    DCD    10
        0x000037ec:    00000000    ....    DCD    0
        0x000037f0:    7fffffff    ....    DCD    2147483647
        0x000037f4:    00000000    ....    DCD    0
    GROUP3_CMD_LIST
        0x000037f8:    495f4950    PI_I    DCD    1230981456
        0x000037fc:    706b2e64    d.kp    DCD    1886072420
        0x00003800:    0a35315f    _15.    DCD    171258207
        0x00003804:    00000000    ....    DCD    0
        0x00003808:    00000000    ....    DCD    0
        0x0000380c:    00000000    ....    DCD    0
        0x00003810:    00000000    ....    DCD    0
        0x00003814:    00000000    ....    DCD    0
        0x00003818:    00000000    ....    DCD    0
        0x0000381c:    00000000    ....    DCD    0
        0x00003820:    00000000    ....    DCD    0
        0x00003824:    00000000    ....    DCD    0
        0x00003828:    00000000    ....    DCD    0
        0x0000382c:    20000034    4..     DCD    536870964
        0x00003830:    ffffffff    ....    DCD    4294967295
        0x00003834:    00000032    2...    DCD    50
        0x00003838:    00000000    ....    DCD    0
        0x0000383c:    7fffffff    ....    DCD    2147483647
        0x00003840:    00000000    ....    DCD    0
        0x00003844:    495f4950    PI_I    DCD    1230981456
        0x00003848:    696b2e64    d.ki    DCD    1768631908
        0x0000384c:    0a35315f    _15.    DCD    171258207
        0x00003850:    00000000    ....    DCD    0
        0x00003854:    00000000    ....    DCD    0
        0x00003858:    00000000    ....    DCD    0
        0x0000385c:    00000000    ....    DCD    0
        0x00003860:    00000000    ....    DCD    0
        0x00003864:    00000000    ....    DCD    0
        0x00003868:    00000000    ....    DCD    0
        0x0000386c:    00000000    ....    DCD    0
        0x00003870:    00000000    ....    DCD    0
        0x00003874:    00000000    ....    DCD    0
        0x00003878:    20000038    8..     DCD    536870968
        0x0000387c:    ffffffff    ....    DCD    4294967295
        0x00003880:    0000000a    ....    DCD    10
        0x00003884:    00000000    ....    DCD    0
        0x00003888:    7fffffff    ....    DCD    2147483647
        0x0000388c:    00000000    ....    DCD    0
    INFO_LIST
        0x00003890:    6f746f4d    Moto    DCD    1869901645
        0x00003894:    632e4172    rA.c    DCD    1663975794
        0x00003898:    692e646d    md.i    DCD    1764648045
        0x0000389c:    725f3631    16_r    DCD    1918842417
        0x000038a0:    726f746f    otor    DCD    1919906927
        0x000038a4:    6570735f    _spe    DCD    1701868383
        0x000038a8:    745f6465    ed_t    DCD    1952408677
        0x000038ac:    65677261    arge    DCD    1701278305
        0x000038b0:    00000a74    t...    DCD    2676
        0x000038b4:    00000000    ....    DCD    0
        0x000038b8:    00000000    ....    DCD    0
        0x000038bc:    00000000    ....    DCD    0
        0x000038c0:    00000000    ....    DCD    0
        0x000038c4:    2000011e    ...     DCD    536871198
        0x000038c8:    0000ffff    ....    DCD    65535
        0x000038cc:    ffffec78    x...    DCD    4294962296
        0x000038d0:    00001388    ....    DCD    5000
        0x000038d4:    00000001    ....    DCD    1
        0x000038d8:    6f746f4d    Moto    DCD    1869901645
        0x000038dc:    692e4172    rA.i    DCD    1764639090
        0x000038e0:    2e6f666e    nfo.    DCD    779052654
        0x000038e4:    5f363169    i16_    DCD    1597387113
        0x000038e8:    6f746f72    roto    DCD    1869901682
        0x000038ec:    70735f72    r_sp    DCD    1886609266
        0x000038f0:    0a646565    eed.    DCD    174351717
        0x000038f4:    00000000    ....    DCD    0
        0x000038f8:    00000000    ....    DCD    0
        0x000038fc:    00000000    ....    DCD    0
        0x00003900:    00000000    ....    DCD    0
        0x00003904:    00000000    ....    DCD    0
        0x00003908:    00000000    ....    DCD    0
        0x0000390c:    200000e8    ...     DCD    536871144
        0x00003910:    0000ffff    ....    DCD    65535
        0x00003914:    ffffec78    x...    DCD    4294962296
        0x00003918:    00001388    ....    DCD    5000
        0x0000391c:    00000001    ....    DCD    1
        0x00003920:    6f746f4d    Moto    DCD    1869901645
        0x00003924:    692e4172    rA.i    DCD    1764639090
        0x00003928:    2e6f666e    nfo.    DCD    779052654
        0x0000392c:    5f363169    i16_    DCD    1597387113
        0x00003930:    000a6449    Id..    DCD    681033
        0x00003934:    00000000    ....    DCD    0
        0x00003938:    00000000    ....    DCD    0
        0x0000393c:    00000000    ....    DCD    0
        0x00003940:    00000000    ....    DCD    0
        0x00003944:    00000000    ....    DCD    0
        0x00003948:    00000000    ....    DCD    0
        0x0000394c:    00000000    ....    DCD    0
        0x00003950:    00000000    ....    DCD    0
        0x00003954:    200000da    ...     DCD    536871130
        0x00003958:    0000ffff    ....    DCD    65535
        0x0000395c:    ffff8000    ....    DCD    4294934528
        0x00003960:    00007fff    ....    DCD    32767
        0x00003964:    00000001    ....    DCD    1
        0x00003968:    6f746f4d    Moto    DCD    1869901645
        0x0000396c:    692e4172    rA.i    DCD    1764639090
        0x00003970:    2e6f666e    nfo.    DCD    779052654
        0x00003974:    5f363169    i16_    DCD    1597387113
        0x00003978:    000a7149    Iq..    DCD    684361
        0x0000397c:    00000000    ....    DCD    0
        0x00003980:    00000000    ....    DCD    0
        0x00003984:    00000000    ....    DCD    0
        0x00003988:    00000000    ....    DCD    0
        0x0000398c:    00000000    ....    DCD    0
        0x00003990:    00000000    ....    DCD    0
        0x00003994:    00000000    ....    DCD    0
        0x00003998:    00000000    ....    DCD    0
        0x0000399c:    200000dc    ...     DCD    536871132
        0x000039a0:    0000ffff    ....    DCD    65535
        0x000039a4:    ffff8000    ....    DCD    4294934528
        0x000039a8:    00007fff    ....    DCD    32767
        0x000039ac:    00000001    ....    DCD    1
    MACRO_LIST
        0x000039b0:    6f746f4d    Moto    DCD    1869901645
        0x000039b4:    632e4172    rA.c    DCD    1663975794
        0x000039b8:    692e646d    md.i    DCD    1764648045
        0x000039bc:    725f3631    16_r    DCD    1918842417
        0x000039c0:    726f746f    otor    DCD    1919906927
        0x000039c4:    6570735f    _spe    DCD    1701868383
        0x000039c8:    745f6465    ed_t    DCD    1952408677
        0x000039cc:    65677261    arge    DCD    1701278305
        0x000039d0:    00000a74    t...    DCD    2676
        0x000039d4:    00000000    ....    DCD    0
        0x000039d8:    00000000    ....    DCD    0
        0x000039dc:    00000000    ....    DCD    0
        0x000039e0:    00000000    ....    DCD    0
        0x000039e4:    2000011e    ...     DCD    536871198
        0x000039e8:    0000ffff    ....    DCD    65535
        0x000039ec:    ffffec78    x...    DCD    4294962296
        0x000039f0:    00001388    ....    DCD    5000
        0x000039f4:    00000001    ....    DCD    1
        0x000039f8:    6f746f4d    Moto    DCD    1869901645
        0x000039fc:    692e4172    rA.i    DCD    1764639090
        0x00003a00:    2e6f666e    nfo.    DCD    779052654
        0x00003a04:    5f363169    i16_    DCD    1597387113
        0x00003a08:    6f746f72    roto    DCD    1869901682
        0x00003a0c:    70735f72    r_sp    DCD    1886609266
        0x00003a10:    0a646565    eed.    DCD    174351717
        0x00003a14:    00000000    ....    DCD    0
        0x00003a18:    00000000    ....    DCD    0
        0x00003a1c:    00000000    ....    DCD    0
        0x00003a20:    00000000    ....    DCD    0
        0x00003a24:    00000000    ....    DCD    0
        0x00003a28:    00000000    ....    DCD    0
        0x00003a2c:    200000e8    ...     DCD    536871144
        0x00003a30:    0000ffff    ....    DCD    65535
        0x00003a34:    ffffec78    x...    DCD    4294962296
        0x00003a38:    00001388    ....    DCD    5000
        0x00003a3c:    00000001    ....    DCD    1
        0x00003a40:    6f746f4d    Moto    DCD    1869901645
        0x00003a44:    692e4172    rA.i    DCD    1764639090
        0x00003a48:    2e6f666e    nfo.    DCD    779052654
        0x00003a4c:    5f363169    i16_    DCD    1597387113
        0x00003a50:    000a6449    Id..    DCD    681033
        0x00003a54:    00000000    ....    DCD    0
        0x00003a58:    00000000    ....    DCD    0
        0x00003a5c:    00000000    ....    DCD    0
        0x00003a60:    00000000    ....    DCD    0
        0x00003a64:    00000000    ....    DCD    0
        0x00003a68:    00000000    ....    DCD    0
        0x00003a6c:    00000000    ....    DCD    0
        0x00003a70:    00000000    ....    DCD    0
        0x00003a74:    200000da    ...     DCD    536871130
        0x00003a78:    0000ffff    ....    DCD    65535
        0x00003a7c:    ffff8000    ....    DCD    4294934528
        0x00003a80:    00007fff    ....    DCD    32767
        0x00003a84:    00000001    ....    DCD    1
        0x00003a88:    6f746f4d    Moto    DCD    1869901645
        0x00003a8c:    692e4172    rA.i    DCD    1764639090
        0x00003a90:    2e6f666e    nfo.    DCD    779052654
        0x00003a94:    5f363169    i16_    DCD    1597387113
        0x00003a98:    000a7149    Iq..    DCD    684361
        0x00003a9c:    00000000    ....    DCD    0
        0x00003aa0:    00000000    ....    DCD    0
        0x00003aa4:    00000000    ....    DCD    0
        0x00003aa8:    00000000    ....    DCD    0
        0x00003aac:    00000000    ....    DCD    0
        0x00003ab0:    00000000    ....    DCD    0
        0x00003ab4:    00000000    ....    DCD    0
        0x00003ab8:    00000000    ....    DCD    0
        0x00003abc:    200000dc    ...     DCD    536871132
        0x00003ac0:    0000ffff    ....    DCD    65535
        0x00003ac4:    ffff8000    ....    DCD    4294934528
        0x00003ac8:    00007fff    ....    DCD    32767
        0x00003acc:    00000001    ....    DCD    1
    MICRO_LIST
        0x00003ad0:    6f746f4d    Moto    DCD    1869901645
        0x00003ad4:    692e4172    rA.i    DCD    1764639090
        0x00003ad8:    2e6f666e    nfo.    DCD    779052654
        0x00003adc:    5f363169    i16_    DCD    1597387113
        0x00003ae0:    000a7549    Iu..    DCD    685385
        0x00003ae4:    00000000    ....    DCD    0
        0x00003ae8:    00000000    ....    DCD    0
        0x00003aec:    00000000    ....    DCD    0
        0x00003af0:    00000000    ....    DCD    0
        0x00003af4:    00000000    ....    DCD    0
        0x00003af8:    00000000    ....    DCD    0
        0x00003afc:    00000000    ....    DCD    0
        0x00003b00:    00000000    ....    DCD    0
        0x00003b04:    200000d0    ...     DCD    536871120
        0x00003b08:    0000ffff    ....    DCD    65535
        0x00003b0c:    ffff8000    ....    DCD    4294934528
        0x00003b10:    00007fff    ....    DCD    32767
        0x00003b14:    00000001    ....    DCD    1
        0x00003b18:    6f746f4d    Moto    DCD    1869901645
        0x00003b1c:    692e4172    rA.i    DCD    1764639090
        0x00003b20:    2e6f666e    nfo.    DCD    779052654
        0x00003b24:    5f363169    i16_    DCD    1597387113
        0x00003b28:    000a7649    Iv..    DCD    685641
        0x00003b2c:    00000000    ....    DCD    0
        0x00003b30:    00000000    ....    DCD    0
        0x00003b34:    00000000    ....    DCD    0
        0x00003b38:    00000000    ....    DCD    0
        0x00003b3c:    00000000    ....    DCD    0
        0x00003b40:    00000000    ....    DCD    0
        0x00003b44:    00000000    ....    DCD    0
        0x00003b48:    00000000    ....    DCD    0
        0x00003b4c:    200000d2    ...     DCD    536871122
        0x00003b50:    0000ffff    ....    DCD    65535
        0x00003b54:    ffff8000    ....    DCD    4294934528
        0x00003b58:    00007fff    ....    DCD    32767
        0x00003b5c:    00000001    ....    DCD    1
        0x00003b60:    6f746f4d    Moto    DCD    1869901645
        0x00003b64:    692e4172    rA.i    DCD    1764639090
        0x00003b68:    2e6f666e    nfo.    DCD    779052654
        0x00003b6c:    5f363169    i16_    DCD    1597387113
        0x00003b70:    000a7749    Iw..    DCD    685897
        0x00003b74:    00000000    ....    DCD    0
        0x00003b78:    00000000    ....    DCD    0
        0x00003b7c:    00000000    ....    DCD    0
        0x00003b80:    00000000    ....    DCD    0
        0x00003b84:    00000000    ....    DCD    0
        0x00003b88:    00000000    ....    DCD    0
        0x00003b8c:    00000000    ....    DCD    0
        0x00003b90:    00000000    ....    DCD    0
        0x00003b94:    200000d4    ...     DCD    536871124
        0x00003b98:    0000ffff    ....    DCD    65535
        0x00003b9c:    ffff8000    ....    DCD    4294934528
        0x00003ba0:    00007fff    ....    DCD    32767
        0x00003ba4:    00000001    ....    DCD    1
        0x00003ba8:    6f746f4d    Moto    DCD    1869901645
        0x00003bac:    632e4172    rA.c    DCD    1663975794
        0x00003bb0:    692e646d    md.i    DCD    1764648045
        0x00003bb4:    615f3631    16_a    DCD    1633629745
        0x00003bb8:    656c676e    ngle    DCD    1701603182
        0x00003bbc:    0000000a    ....    DCD    10
        0x00003bc0:    00000000    ....    DCD    0
        0x00003bc4:    00000000    ....    DCD    0
        0x00003bc8:    00000000    ....    DCD    0
        0x00003bcc:    00000000    ....    DCD    0
        0x00003bd0:    00000000    ....    DCD    0
        0x00003bd4:    00000000    ....    DCD    0
        0x00003bd8:    00000000    ....    DCD    0
        0x00003bdc:    20000120     ..     DCD    536871200
        0x00003be0:    0000ffff    ....    DCD    65535
        0x00003be4:    00000000    ....    DCD    0
        0x00003be8:    00000400    ....    DCD    1024
        0x00003bec:    00000001    ....    DCD    1
        0x00003bf0:    6f746f4d    Moto    DCD    1869901645
        0x00003bf4:    692e4172    rA.i    DCD    1764639090
        0x00003bf8:    2e6f666e    nfo.    DCD    779052654
        0x00003bfc:    5f363169    i16_    DCD    1597387113
        0x00003c00:    000a6449    Id..    DCD    681033
        0x00003c04:    00000000    ....    DCD    0
        0x00003c08:    00000000    ....    DCD    0
        0x00003c0c:    00000000    ....    DCD    0
        0x00003c10:    00000000    ....    DCD    0
        0x00003c14:    00000000    ....    DCD    0
        0x00003c18:    00000000    ....    DCD    0
        0x00003c1c:    00000000    ....    DCD    0
        0x00003c20:    00000000    ....    DCD    0
        0x00003c24:    200000da    ...     DCD    536871130
        0x00003c28:    0000ffff    ....    DCD    65535
        0x00003c2c:    ffff8000    ....    DCD    4294934528
        0x00003c30:    00007fff    ....    DCD    32767
        0x00003c34:    00000001    ....    DCD    1
        0x00003c38:    6f746f4d    Moto    DCD    1869901645
        0x00003c3c:    692e4172    rA.i    DCD    1764639090
        0x00003c40:    2e6f666e    nfo.    DCD    779052654
        0x00003c44:    5f363169    i16_    DCD    1597387113
        0x00003c48:    000a7149    Iq..    DCD    684361
        0x00003c4c:    00000000    ....    DCD    0
        0x00003c50:    00000000    ....    DCD    0
        0x00003c54:    00000000    ....    DCD    0
        0x00003c58:    00000000    ....    DCD    0
        0x00003c5c:    00000000    ....    DCD    0
        0x00003c60:    00000000    ....    DCD    0
        0x00003c64:    00000000    ....    DCD    0
        0x00003c68:    00000000    ....    DCD    0
        0x00003c6c:    200000dc    ...     DCD    536871132
        0x00003c70:    0000ffff    ....    DCD    65535
        0x00003c74:    ffff8000    ....    DCD    4294934528
        0x00003c78:    00007fff    ....    DCD    32767
        0x00003c7c:    00000001    ....    DCD    1
    SYS_LIST
        0x00003c80:    6f746f4d    Moto    DCD    1869901645
        0x00003c84:    632e4172    rA.c    DCD    1663975794
        0x00003c88:    752e646d    md.u    DCD    1965974637
        0x00003c8c:    74735f38    8_st    DCD    1953718072
        0x00003c90:    0a747261    art.    DCD    175403617
        0x00003c94:    00000000    ....    DCD    0
        0x00003c98:    00000000    ....    DCD    0
        0x00003c9c:    00000000    ....    DCD    0
        0x00003ca0:    00000000    ....    DCD    0
        0x00003ca4:    00000000    ....    DCD    0
        0x00003ca8:    00000000    ....    DCD    0
        0x00003cac:    00000000    ....    DCD    0
        0x00003cb0:    00000000    ....    DCD    0
        0x00003cb4:    20000126    &..     DCD    536871206
        0x00003cb8:    000000ff    ....    DCD    255
        0x00003cbc:    00000000    ....    DCD    0
        0x00003cc0:    00000001    ....    DCD    1
        0x00003cc4:    00000000    ....    DCD    0
    sinTab
        0x00003cc8:    00c90000    ....    DCD    13172736
        0x00003ccc:    025b0192    ..[.    DCD    39518610
        0x00003cd0:    03ee0324    $...    DCD    65930020
        0x00003cd4:    058004b7    ....    DCD    92275895
        0x00003cd8:    07120649    I...    DCD    118621769
        0x00003cdc:    08a407db    ....    DCD    144967643
        0x00003ce0:    0a35096c    l.5.    DCD    171247980
        0x00003ce4:    0bc60afe    ....    DCD    197528318
        0x00003ce8:    0d570c8e    ..W.    DCD    223808654
        0x00003cec:    0ee70e1f    ....    DCD    250023455
        0x00003cf0:    10760faf    ..v.    DCD    276172719
        0x00003cf4:    1205113e    >...    DCD    302321982
        0x00003cf8:    139312cc    ....    DCD    328405708
        0x00003cfc:    1521145a    Z.!.    DCD    354489434
        0x00003d00:    16ad15e7    ....    DCD    380442087
        0x00003d04:    18391773    s.9.    DCD    406394739
        0x00003d08:    19c418fe    ....    DCD    432281854
        0x00003d0c:    1b4d1a89    ..M.    DCD    458037897
        0x00003d10:    1cd61c12    ....    DCD    483793938
        0x00003d14:    1e5e1d9a    ..^.    DCD    509484442
        0x00003d18:    1fe41f21    !...    DCD    535043873
        0x00003d1c:    216920a7    . i!    DCD    560537767
        0x00003d20:    22ed222b    +"."    DCD    585966123
        0x00003d24:    247023af    .#p$    DCD    611328943
        0x00003d28:    25f12531    1%.%    DCD    636560689
        0x00003d2c:    277126b1    .&q'    DCD    661726897
        0x00003d30:    28ef2830    0(.(    DCD    686762032
        0x00003d34:    2a6b29ad    .)k*    DCD    711666093
        0x00003d38:    2be62b29    )+.+    DCD    736504617
        0x00003d3c:    2d602ca3    .,`-    DCD    761277603
        0x00003d40:    2ed72e1c    ....    DCD    785853980
        0x00003d44:    304d2f92    ./M0    DCD    810364818
        0x00003d48:    31c13107    .1.1    DCD    834744583
        0x00003d4c:    3332327a    z223    DCD    858927738
        0x00003d50:    34a233eb    .3.4    DCD    883045355
        0x00003d54:    3610355a    Z5.6    DCD    907031898
        0x00003d58:    377c36c6    .6|7    DCD    930887366
        0x00003d5c:    38e63831    18.8    DCD    954611761
        0x00003d60:    3a4d399a    .9M:    DCD    978139546
        0x00003d64:    3bb23b00    .;.;    DCD    1001536256
        0x00003d68:    3d153c64    d<.=    DCD    1024801892
        0x00003d6c:    3e763dc6    .=v>    DCD    1047936454
        0x00003d70:    3fd43f25    %?.?    DCD    1070874405
        0x00003d74:    41304082    .@0A    DCD    1093681282
        0x00003d78:    428941dc    .A.B    DCD    1116291548
        0x00003d7c:    43df4334    4C.C    DCD    1138705204
        0x00003d80:    4533448a    .D3E    DCD    1160987786
        0x00003d84:    468445dc    .E.F    DCD    1183073756
        0x00003d88:    47d3472c    ,G.G    DCD    1205028652
        0x00003d8c:    491f4879    yH.I    DCD    1226786937
        0x00003d90:    4a6849c4    .IhJ    DCD    1248348612
        0x00003d94:    4bae4b0b    .K.K    DCD    1269713675
        0x00003d98:    4cf14c50    PL.L    DCD    1290882128
        0x00003d9c:    4e314d91    .M1N    DCD    1311853969
        0x00003da0:    4f6e4ed0    .NnO    DCD    1332629200
        0x00003da4:    50a8500c    .P.P    DCD    1353207820
        0x00003da8:    51df5144    DQ.Q    DCD    1373589828
        0x00003dac:    5313527a    zR.S    DCD    1393775226
        0x00003db0:    544453ac    .SDT    DCD    1413764012
        0x00003db4:    557154db    .TqU    DCD    1433490651
        0x00003db8:    569b5607    .V.V    DCD    1453020679
        0x00003dbc:    57c2572f    /W.W    DCD    1472354095
        0x00003dc0:    58e55854    TX.X    DCD    1491425364
        0x00003dc4:    5a055976    vY.Z    DCD    1510300022
        0x00003dc8:    5b225a94    .Z"[    DCD    1528978068
        0x00003dcc:    5c3a5bae    .[:\    DCD    1547328430
        0x00003dd0:    5d505cc6    .\P]    DCD    1565547718
        0x00003dd4:    5e615dd9    .]a^    DCD    1583439321
        0x00003dd8:    5f705ee9    .^p_    DCD    1601199849
        0x00003ddc:    607a5ff5    ._z`    DCD    1618632693
        0x00003de0:    618160fe    .`.a    DCD    1635868926
        0x00003de4:    62836202    .b.b    DCD    1652777474
        0x00003de8:    63836303    .c.c    DCD    1669554947
        0x00003dec:    647e6401    .d~d    DCD    1686004737
        0x00003df0:    657564fa    .due    DCD    1702192378
        0x00003df4:    666965ef    .eif    DCD    1718183407
        0x00003df8:    675866e1    .fXg    DCD    1733846753
        0x00003dfc:    684467ce    .gDh    DCD    1749313486
        0x00003e00:    692b68b8    .h+i    DCD    1764452536
        0x00003e04:    6a0e699d    .i.j    DCD    1779329437
        0x00003e08:    6aee6a7f    .j.j    DCD    1794009727
        0x00003e0c:    6bc96b5c    \k.k    DCD    1808362332
        0x00003e10:    6ca06c35    5l.l    DCD    1822452789
        0x00003e14:    6d736d0a    .msm    DCD    1836281098
        0x00003e18:    6e416ddb    .mAn    DCD    1849781723
        0x00003e1c:    6f0c6ea7    .n.o    DCD    1863085735
        0x00003e20:    6fd26f6f    oo.o    DCD    1876062063
        0x00003e24:    70937033    3p.p    DCD    1888710707
        0x00003e28:    715170f3    .pQq    DCD    1901162739
        0x00003e2c:    720a71ae    .q.r    DCD    1913287086
        0x00003e30:    72be7265    er.r    DCD    1925083749
        0x00003e34:    736e7317    .sns    DCD    1936618263
        0x00003e38:    741a73c5    .s.t    DCD    1947890629
        0x00003e3c:    74c1746e    nt.t    DCD    1958835310
        0x00003e40:    75647513    .udu    DCD    1969517843
        0x00003e44:    760275b4    .u.v    DCD    1979872692
        0x00003e48:    769c7650    Pv.v    DCD    1989965392
        0x00003e4c:    773176e7    .v1w    DCD    1999730407
        0x00003e50:    77c1777a    zw.w    DCD    2009167738
        0x00003e54:    784d7808    .xMx    DCD    2018342920
        0x00003e58:    78d47891    .x.x    DCD    2027190417
        0x00003e5c:    79577916    .yWy    DCD    2035775766
        0x00003e60:    79d57996    .y.y    DCD    2044033430
        0x00003e64:    7a4e7a12    .zNz    DCD    2051963410
        0x00003e68:    7ac27a88    .z.z    DCD    2059565704
        0x00003e6c:    7b327afa    .z2{    DCD    2066905850
        0x00003e70:    7b9c7b68    h{.{    DCD    2073852776
        0x00003e74:    7c037bd0    .{.|    DCD    2080603088
        0x00003e78:    7c647c34    4|d|    DCD    2086960180
        0x00003e7c:    7cc07c93    .|.|    DCD    2092989587
        0x00003e80:    7d187ced    .|.}    DCD    2098756845
        0x00003e84:    7d6b7d42    B}k}    DCD    2104196418
        0x00003e88:    7db97d92    .}.}    DCD    2109308306
        0x00003e8c:    7e027dde    .}.~    DCD    2114092510
        0x00003e90:    7e467e25    %~F~    DCD    2118549029
        0x00003e94:    7e867e67    g~.~    DCD    2122743399
        0x00003e98:    7ec07ea3    .~.~    DCD    2126544547
        0x00003e9c:    7ef67edc    .~.~    DCD    2130083548
        0x00003ea0:    7f267f0f    ..&.    DCD    2133229327
        0x00003ea4:    7f527f3d    =.R.    DCD    2136112957
        0x00003ea8:    7f797f66    f.y.    DCD    2138668902
        0x00003eac:    7f9b7f8b    ....    DCD    2140897163
        0x00003eb0:    7fb87faa    ....    DCD    2142797738
        0x00003eb4:    7fd07fc5    ....    DCD    2144370629
        0x00003eb8:    7fe37fda    ....    DCD    2145615834
        0x00003ebc:    7ff27feb    ....    DCD    2146598891
        0x00003ec0:    7ffb7ff7    ....    DCD    2147188727
        0x00003ec4:    7fff7ffe    ....    DCD    2147450878
        0x00003ec8:    7fff7fff    ....    DCD    2147450879
        0x00003ecc:    7ff97ffc    ....    DCD    2147057660
        0x00003ed0:    7fee7ff4    ....    DCD    2146336756
        0x00003ed4:    7fdf7fe7    ....    DCD    2145353703
        0x00003ed8:    7fcb7fd5    ....    DCD    2144042965
        0x00003edc:    7fb17fbf    ....    DCD    2142339007
        0x00003ee0:    7f937fa3    ....    DCD    2140372899
        0x00003ee4:    7f707f82    ..p.    DCD    2138079106
        0x00003ee8:    7f487f5c    \.H.    DCD    2135457628
        0x00003eec:    7f1b7f32    2...    DCD    2132508466
        0x00003ef0:    7ee97f02    ...~    DCD    2129231618
        0x00003ef4:    7eb27ece    .~.~    DCD    2125627086
        0x00003ef8:    7e767e95    .~v~    DCD    2121694869
        0x00003efc:    7e367e57    W~6~    DCD    2117500503
        0x00003f00:    7df07e13    .~.}    DCD    2112912915
        0x00003f04:    7da67dcc    .}.}    DCD    2108063180
        0x00003f08:    7d577d7f    .}W}    DCD    2102885759
        0x00003f0c:    7d037d2d    -}.}    DCD    2097380653
        0x00003f10:    7caa7cd7    .|.|    DCD    2091547863
        0x00003f14:    7c4c7c7b    {|L|    DCD    2085387387
        0x00003f18:    7be97c1b    .|.{    DCD    2078899227
        0x00003f1c:    7b827bb6    .{.{    DCD    2072148918
        0x00003f20:    7b167b4d    M{.{    DCD    2065070925
        0x00003f24:    7aa57ade    .z.z    DCD    2057665246
        0x00003f28:    7a307a6b    kz0z    DCD    2049997419
        0x00003f2c:    79b579f3    .y.y    DCD    2041936371
        0x00003f30:    79377977    wy7y    DCD    2033678711
        0x00003f34:    78b378f5    .x.x    DCD    2025027829
        0x00003f38:    782b786f    ox+x    DCD    2016114799
        0x00003f3c:    779e77e5    .w.w    DCD    2006874085
        0x00003f40:    770c7755    Uw.w    DCD    1997305685
        0x00003f44:    767676c2    .vvv    DCD    1987475138
        0x00003f48:    75db7629    )v.u    DCD    1977316905
        0x00003f4c:    753c758c    .u<u    DCD    1966896524
        0x00003f50:    749874ea    .t.t    DCD    1956148458
        0x00003f54:    73f07444    Dt.s    DCD    1945138244
        0x00003f58:    7343739a    .sCs    DCD    1933800346
        0x00003f5c:    729272eb    .r.r    DCD    1922200299
        0x00003f60:    71dc7237    7r.q    DCD    1910272567
        0x00003f64:    7122717f    .q"q    DCD    1898082687
        0x00003f68:    706370c3    .pcp    DCD    1885565123
        0x00003f6c:    6fa17002    .p.o    DCD    1872850946
        0x00003f70:    6ed96f3e    >o.n    DCD    1859743550
        0x00003f74:    6e0e6e74    tn.n    DCD    1846439540
        0x00003f78:    6d3e6da7    .m>m    DCD    1832807847
        0x00003f7c:    6c6b6cd5    .lkl    DCD    1818979541
        0x00003f80:    6b926bff    .k.k    DCD    1804758015
        0x00003f84:    6ab66b25    %k.j    DCD    1790339877
        0x00003f88:    69d66a47    Gj.i    DCD    1775659591
        0x00003f8c:    68f26964    di.h    DCD    1760717156
        0x00003f90:    6809687e    ~h.h    DCD    1745447038
        0x00003f94:    671d6793    .g.g    DCD    1729980307
        0x00003f98:    662c66a5    .f,f    DCD    1714185893
        0x00003f9c:    653865b2    .e8e    DCD    1698194866
        0x00003fa0:    643f64bc    .d?d    DCD    1681876156
        0x00003fa4:    634363c2    .cCc    DCD    1665360834
        0x00003fa8:    624362c4    .bCb    DCD    1648583364
        0x00003fac:    613f61c2    .a?a    DCD    1631543746
        0x00003fb0:    603860bc    .`8`    DCD    1614307516
        0x00003fb4:    5f2c5fb2    ._,_    DCD    1596743602
        0x00003fb8:    5e1d5ea5    .^.^    DCD    1578983077
        0x00003fbc:    5d0b5d94    .].]    DCD    1561025940
        0x00003fc0:    5bf55c80    .\.[    DCD    1542806656
        0x00003fc4:    5adb5b68    h[.Z    DCD    1524325224
        0x00003fc8:    59bd5a4d    MZ.Y    DCD    1505581645
        0x00003fcc:    589d592e    .Y.X    DCD    1486706990
        0x00003fd0:    5779580b    .XyW    DCD    1467570187
        0x00003fd4:    565156e5    .VQV    DCD    1448171237
        0x00003fd8:    552655bc    .U&U    DCD    1428575676
        0x00003fdc:    53f8548f    .T.S    DCD    1408783503
        0x00003fe0:    52c75360    `S.R    DCD    1388794720
        0x00003fe4:    5192522d    -R.Q    DCD    1368543789
        0x00003fe8:    505a50f6    .PZP    DCD    1348096246
        0x00003fec:    4f1f4fbd    .O.O    DCD    1327452093
        0x00003ff0:    4de14e81    .N.M    DCD    1306611329
        0x00003ff4:    4ca04d41    AM.L    DCD    1285573953
        0x00003ff8:    4b5d4bff    .K]K    DCD    1264405503
        0x00003ffc:    4a164aba    .J.J    DCD    1242974906
        0x00004000:    48cc4971    qI.H    DCD    1221347697
        0x00004004:    47804826    &H.G    DCD    1199589414
        0x00004008:    463046d8    .F0F    DCD    1177568984
        0x0000400c:    44de4588    .E.D    DCD    1155417480
        0x00004010:    438a4435    5D.C    DCD    1133134901
        0x00004014:    423342df    .B3B    DCD    1110655711
        0x00004018:    40d94186    .A.@    DCD    1087979910
        0x0000401c:    3f7d402b    +@}?    DCD    1065173035
        0x00004020:    3e1e3ece    .>.>    DCD    1042169550
        0x00004024:    3cbd3d6e    n=.<    DCD    1019034990
        0x00004028:    3b593c0b    .<Y;    DCD    995703819
        0x0000402c:    39f33aa7    .:.9    DCD    972241575
        0x00004030:    388b3940    @9.8    DCD    948648256
        0x00004034:    372137d7    .7!7    DCD    924923863
        0x00004038:    35b5366b    k6.5    DCD    901068395
        0x0000403c:    344734fe    .4G4    DCD    877081854
        0x00004040:    32d6338f    .3.2    DCD    852898703
        0x00004044:    3164321d    .2d1    DCD    828650013
        0x00004048:    2fef30aa    .0./    DCD    804204714
        0x0000404c:    2e792f35    5/y.    DCD    779693877
        0x00004050:    2d012dbe    .-.-    DCD    755051966
        0x00004054:    2b882c45    E,.+    DCD    730344517
        0x00004058:    2a0c2aca    .*.*    DCD    705440458
        0x0000405c:    288f294e    N).(    DCD    680470862
        0x00004060:    271127d0    .'.'    DCD    655435728
        0x00004064:    25912651    Q&.%    DCD    630269521
        0x00004068:    240f24d0    .$.$    DCD    604972240
        0x0000406c:    228c234e    N#."    DCD    579609422
        0x00004070:    210821ca    .!.!    DCD    554181066
        0x00004074:    1f832046    F ..    DCD    528687174
        0x00004078:    1dfc1ebf    ....    DCD    503062207
        0x0000407c:    1c741d38    8.t.    DCD    477371704
        0x00004080:    1aeb1bb0    ....    DCD    451615664
        0x00004084:    19611a26    &.a.    DCD    425794086
        0x00004088:    17d6189c    ....    DCD    399906972
        0x0000408c:    164a1710    ..J.    DCD    373954320
        0x00004090:    14bd1584    ....    DCD    347936132
        0x00004094:    133013f7    ..0.    DCD    321917943
        0x00004098:    11a11269    i...    DCD    295768681
        0x0000409c:    101210da    ....    DCD    269619418
        0x000040a0:    0e830f4b    K...    DCD    243470155
        0x000040a4:    0cf30dbb    ....    DCD    217255355
        0x000040a8:    0b620c2a    *.b.    DCD    190975018
        0x000040ac:    09d10a99    ....    DCD    164694681
        0x000040b0:    083f0908    ..?.    DCD    138348808
        0x000040b4:    06ad0776    v...    DCD    112002934
        0x000040b8:    051b05e4    ....    DCD    85657060
        0x000040bc:    03890452    R...    DCD    59311186
        0x000040c0:    01f702c0    ....    DCD    32965312
        0x000040c4:    0064012d    -.d.    DCD    6553901
        0x000040c8:    fed3ff9c    ....    DCD    4275306396
        0x000040cc:    fd40fe09    ..@.    DCD    4248894985
        0x000040d0:    fbaefc77    w...    DCD    4222549111
        0x000040d4:    fa1cfae5    ....    DCD    4196203237
        0x000040d8:    f88af953    S...    DCD    4169857363
        0x000040dc:    f6f8f7c1    ....    DCD    4143511489
        0x000040e0:    f567f62f    /.g.    DCD    4117231151
        0x000040e4:    f3d6f49e    ....    DCD    4090950814
        0x000040e8:    f245f30d    ..E.    DCD    4064670477
        0x000040ec:    f0b5f17d    }...    DCD    4038455677
        0x000040f0:    ef26efee    ..&.    DCD    4012306414
        0x000040f4:    ed97ee5f    _...    DCD    3986157151
        0x000040f8:    ec09ecd0    ....    DCD    3960073424
        0x000040fc:    ea7ceb43    C.|.    DCD    3934055235
        0x00004100:    e8f0e9b6    ....    DCD    3908102582
        0x00004104:    e764e82a    *.d.    DCD    3882149930
        0x00004108:    e5dae69f    ....    DCD    3856328351
        0x0000410c:    e450e515    ..P.    DCD    3830506773
        0x00004110:    e2c8e38c    ....    DCD    3804816268
        0x00004114:    e141e204    ..A.    DCD    3779191300
        0x00004118:    dfbae07d    }...    DCD    3753566333
        0x0000411c:    de36def8    ..6.    DCD    3728137976
        0x00004120:    dcb2dd74    t...    DCD    3702709620
        0x00004124:    db30dbf1    ..0.    DCD    3677412337
        0x00004128:    d9afda6f    o...    DCD    3652180591
        0x0000412c:    d830d8ef    ..0.    DCD    3627079919
        0x00004130:    d6b2d771    q...    DCD    3602044785
        0x00004134:    d536d5f4    ..6.    DCD    3577140724
        0x00004138:    d3bbd478    x...    DCD    3552302200
        0x0000413c:    d242d2ff    ..B.    DCD    3527594751
        0x00004140:    d0cbd187    ....    DCD    3503018375
        0x00004144:    cf56d011    ..V.    DCD    3478573073
        0x00004148:    cde3ce9c    ....    DCD    3454258844
        0x0000414c:    cc71cd2a    *.q.    DCD    3430010154
        0x00004150:    cb02cbb9    ....    DCD    3405958073
        0x00004154:    c995ca4b    K...    DCD    3382037067
        0x00004158:    c829c8df    ..).    DCD    3358181599
        0x0000415c:    c6c0c775    u...    DCD    3334522741
        0x00004160:    c559c60d    ..Y.    DCD    3310994957
        0x00004164:    c3f5c4a7    ....    DCD    3287663783
        0x00004168:    c292c343    C...    DCD    3264398147
        0x0000416c:    c132c1e2    ..2.    DCD    3241329122
        0x00004170:    bfd5c083    ....    DCD    3218456707
        0x00004174:    be7abf27    '.z.    DCD    3195715367
        0x00004178:    bd21bdcd    ..!.    DCD    3173105101
        0x0000417c:    bbcbbc76    v...    DCD    3150691446
        0x00004180:    ba78bb22    ".x.    DCD    3128474402
        0x00004184:    b928b9d0    ..(.    DCD    3106453968
        0x00004188:    b7dab880    ....    DCD    3084564608
        0x0000418c:    b68fb734    4...    DCD    3062871860
        0x00004190:    b546b5ea    ..F.    DCD    3041310186
        0x00004194:    b401b4a3    ....    DCD    3020010659
        0x00004198:    b2bfb360    `...    DCD    2998907744
        0x0000419c:    b17fb21f    ....    DCD    2977935903
        0x000041a0:    b043b0e1    ..C.    DCD    2957226209
        0x000041a4:    af0aafa6    ....    DCD    2936713126
        0x000041a8:    add3ae6e    n...    DCD    2916331118
        0x000041ac:    aca0ad39    9...    DCD    2896211257
        0x000041b0:    ab71ac08    ..q.    DCD    2876353544
        0x000041b4:    aa44aada    ..D.    DCD    2856626906
        0x000041b8:    a91ba9af    ....    DCD    2837162415
        0x000041bc:    a7f5a887    ....    DCD    2817894535
        0x000041c0:    a6d2a763    c...    DCD    2798823267
        0x000041c4:    a5b3a643    C...    DCD    2780014147
        0x000041c8:    a498a525    %...    DCD    2761467173
        0x000041cc:    a380a40b    ....    DCD    2743116811
        0x000041d0:    a26ca2f5    ..l.    DCD    2725028597
        0x000041d4:    a15ba1e3    ..[.    DCD    2707136995
        0x000041d8:    a04ea0d4    ..N.    DCD    2689507540
        0x000041dc:    9f449fc8    ..D.    DCD    2672074696
        0x000041e0:    9e3e9ec1    ..>.    DCD    2654904001
        0x000041e4:    9d3c9dbd    ..<.    DCD    2637995453
        0x000041e8:    9c3e9cbd    ..>.    DCD    2621349053
        0x000041ec:    9b449bc1    ..D.    DCD    2604964801
        0x000041f0:    9a4e9ac8    ..N.    DCD    2588842696
        0x000041f4:    995b99d4    ..[.    DCD    2572917204
        0x000041f8:    986d98e3    ..m.    DCD    2557319395
        0x000041fc:    978297f7    ....    DCD    2541918199
        0x00004200:    969c970e    ....    DCD    2526844686
        0x00004204:    95b9962a    *...    DCD    2511967786
        0x00004208:    94db954a    J...    DCD    2497418570
        0x0000420c:    9401946e    n...    DCD    2483131502
        0x00004210:    932b9395    ..+.    DCD    2469106581
        0x00004214:    925992c2    ..Y.    DCD    2455343810
        0x00004218:    918c91f2    ....    DCD    2441908722
        0x0000421c:    90c29127    '...    DCD    2428670247
        0x00004220:    8ffe905f    _...    DCD    2415824991
        0x00004224:    8f3d8f9d    ..=.    DCD    2403176349
        0x00004228:    8e818ede    ....    DCD    2390855390
        0x0000422c:    8dc98e24    $...    DCD    2378796580
        0x00004230:    8d158d6e    n...    DCD    2366999918
        0x00004234:    8c668cbd    ..f.    DCD    2355530941
        0x00004238:    8bbc8c10    ....    DCD    2344389648
        0x0000423c:    8b168b68    h...    DCD    2333510504
        0x00004240:    8a748ac4    ..t.    DCD    2322893508
        0x00004244:    89d78a25    %...    DCD    2312604197
        0x00004248:    893e898a    ..>.    DCD    2302577034
        0x0000424c:    88ab88f4    ....    DCD    2292943092
        0x00004250:    881b8862    b...    DCD    2283505762
        0x00004254:    879187d5    ....    DCD    2274461653
        0x00004258:    870b874d    M...    DCD    2265679693
        0x0000425c:    868986c9    ....    DCD    2257159881
        0x00004260:    860d864b    K...    DCD    2249033291
        0x00004264:    859585d0    ....    DCD    2241168848
        0x00004268:    8522855b    [.".    DCD    2233632091
        0x0000426c:    84b384ea    ....    DCD    2226357482
        0x00004270:    844a847e    ~.J.    DCD    2219476094
        0x00004274:    83e58417    ....    DCD    2212856855
        0x00004278:    838583b4    ....    DCD    2206565300
        0x0000427c:    83298356    V.).    DCD    2200535894
        0x00004280:    82d382fd    ....    DCD    2194899709
        0x00004284:    828182a9    ....    DCD    2189525673
        0x00004288:    8234825a    Z.4.    DCD    2184479322
        0x0000428c:    81ed8210    ....    DCD    2179826192
        0x00004290:    81a981ca    ....    DCD    2175369674
        0x00004294:    816b818a    ..k.    DCD    2171306378
        0x00004298:    8132814e    N.2.    DCD    2167570766
        0x0000429c:    80fe8117    ....    DCD    2164162839
        0x000042a0:    80ce80e5    ....    DCD    2161017061
        0x000042a4:    80a480b8    ....    DCD    2158264504
        0x000042a8:    807e8090    ..~.    DCD    2155774096
        0x000042ac:    805d806d    m.].    DCD    2153611373
        0x000042b0:    8041804f    O.A.    DCD    2151776335
        0x000042b4:    802b8035    5.+.    DCD    2150334517
        0x000042b8:    80198021    !...    DCD    2149154849
        0x000042bc:    800c8012    ....    DCD    2148302866
        0x000042c0:    80048007    ....    DCD    2147778567
        0x000042c4:    80018001    ....    DCD    2147581953
        0x000042c8:    80028001    ....    DCD    2147647489
        0x000042cc:    80098005    ....    DCD    2148106245
        0x000042d0:    8015800e    ....    DCD    2148892686
        0x000042d4:    8026801d    ..&.    DCD    2150006813
        0x000042d8:    803b8030    0.;.    DCD    2151383088
        0x000042dc:    80568048    H.V.    DCD    2153152584
        0x000042e0:    80758065    e.u.    DCD    2155184229
        0x000042e4:    809a8087    ....    DCD    2157609095
        0x000042e8:    80c380ae    ....    DCD    2160296110
        0x000042ec:    80f180da    ....    DCD    2163310810
        0x000042f0:    8124810a    ..$.    DCD    2166653194
        0x000042f4:    815d8140    @.].    DCD    2170388800
        0x000042f8:    8199817a    z...    DCD    2174321018
        0x000042fc:    81db81ba    ....    DCD    2178646458
        0x00004300:    822281fe    ..".    DCD    2183299582
        0x00004304:    826e8247    G.n.    DCD    2188280391
        0x00004308:    82be8295    ....    DCD    2193523349
        0x0000430c:    831382e8    ....    DCD    2199093992
        0x00004310:    836d8340    @.m.    DCD    2204992320
        0x00004314:    83cc839c    ....    DCD    2211218332
        0x00004318:    843083fd    ..0.    DCD    2217772029
        0x0000431c:    84988464    d...    DCD    2224587876
        0x00004320:    850684ce    ....    DCD    2231796942
        0x00004324:    8578853e    >.x.    DCD    2239268158
        0x00004328:    85ee85b2    ....    DCD    2247001522
        0x0000432c:    866a862b    +.j.    DCD    2255128107
        0x00004330:    86ea86a9    ....    DCD    2263516841
        0x00004334:    876f872c    ,.o.    DCD    2272233260
        0x00004338:    87f887b3    ....    DCD    2281211827
        0x0000433c:    8886883f    ?...    DCD    2290518079
        0x00004340:    891988cf    ....    DCD    2300152015
        0x00004344:    89b08964    d...    DCD    2310048100
        0x00004348:    8a4c89fe    ..L.    DCD    2320271870
        0x0000434c:    8aed8a9c    ....    DCD    2330823324
        0x00004350:    8b928b3f    ?...    DCD    2341636927
        0x00004354:    8c3b8be6    ..;.    DCD    2352712678
        0x00004358:    8ce98c92    ....    DCD    2364116114
        0x0000435c:    8d9b8d42    B...    DCD    2375781698
        0x00004360:    8e528df6    ..R.    DCD    2387774966
        0x00004364:    8f0d8eaf    ....    DCD    2400030383
        0x00004368:    8fcd8f6d    m...    DCD    2412613485
        0x0000436c:    9091902e    ....    DCD    2425458734
        0x00004370:    915990f4    ..Y.    DCD    2438566132
        0x00004374:    922591bf    ..%.    DCD    2451935679
        0x00004378:    92f6928d    ....    DCD    2465632909
        0x0000437c:    93cb9360    `...    DCD    2479592288
        0x00004380:    94a49437    7...    DCD    2493813815
        0x00004384:    95819512    ....    DCD    2508297490
        0x00004388:    966395f2    ..c.    DCD    2523108850
        0x0000438c:    974896d5    ..H.    DCD    2538116821
        0x00004390:    983297bc    ..2.    DCD    2553452476
        0x00004394:    991f98a8    ....    DCD    2568984744
        0x00004398:    9a119997    ....    DCD    2584844695
        0x0000439c:    9b069a8b    ....    DCD    2600901259
        0x000043a0:    9bff9b82    ....    DCD    2617219970
        0x000043a4:    9cfd9c7d    }...    DCD    2633866365
        0x000043a8:    9dfe9d7d    }...    DCD    2650709373
        0x000043ac:    9f029e7f    ....    DCD    2667748991
        0x000043b0:    a00b9f86    ....    DCD    2685116294
        0x000043b4:    a117a090    ....    DCD    2702680208
        0x000043b8:    a227a19f    ..'.    DCD    2720506271
        0x000043bc:    a33aa2b0    ..:.    DCD    2738528944
        0x000043c0:    a452a3c6    ..R.    DCD    2756879302
        0x000043c4:    a56ca4de    ..l.    DCD    2775360734
        0x000043c8:    a68aa5fb    ....    DCD    2794104315
        0x000043cc:    a7aca71b    ....    DCD    2813110043
        0x000043d0:    a8d1a83e    >...    DCD    2832312382
        0x000043d4:    a9f9a965    e...    DCD    2851711333
        0x000043d8:    ab25aa8f    ..%.    DCD    2871372431
        0x000043dc:    ac54abbc    ..T.    DCD    2891230140
        0x000043e0:    ad86aced    ....    DCD    2911284461
        0x000043e4:    aebcae21    !...    DCD    2931600929
        0x000043e8:    aff4af58    X...    DCD    2952048472
        0x000043ec:    b130b092    ..0.    DCD    2972758162
        0x000043f0:    b26fb1cf    ..o.    DCD    2993664463
        0x000043f4:    b3b0b30f    ....    DCD    3014701839
        0x000043f8:    b4f5b452    R...    DCD    3036001362
        0x000043fc:    b63cb598    ..<.    DCD    3057431960
        0x00004400:    b787b6e1    ....    DCD    3079124705
        0x00004404:    b8d4b82d    -...    DCD    3100948525
        0x00004408:    ba24b97c    |.$.    DCD    3122968956
        0x0000440c:    bb76bacd    ..v.    DCD    3145120461
        0x00004410:    bcccbc21    !...    DCD    3167534113
        0x00004414:    be24bd77    w.$.    DCD    3190078839
        0x00004418:    bf7ebed0    ..~.    DCD    3212754640
        0x0000441c:    c0dbc02c    ,...    DCD    3235627052
        0x00004420:    c23ac18a    ..:.    DCD    3258630538
        0x00004424:    c39cc2eb    ....    DCD    3281830635
        0x00004428:    c500c44e    N...    DCD    3305161806
        0x0000442c:    c666c5b3    ..f.    DCD    3328624051
        0x00004430:    c7cfc71a    ....    DCD    3352282906
        0x00004434:    c93ac884    ..:.    DCD    3376072836
        0x00004438:    caa6c9f0    ....    DCD    3399928304
        0x0000443c:    cc15cb5e    ^...    DCD    3423980382
        0x00004440:    cd86ccce    ....    DCD    3448163534
        0x00004444:    cef9ce3f    ?...    DCD    3472477759
        0x00004448:    d06ecfb3    ..n.    DCD    3496923059
        0x0000444c:    d1e4d129    )...    DCD    3521433897
        0x00004450:    d35dd2a0    ..].    DCD    3546141344
        0x00004454:    d4d7d41a    ....    DCD    3570914330
        0x00004458:    d653d595    ..S.    DCD    3595818389
        0x0000445c:    d7d0d711    ....    DCD    3620787985
        0x00004460:    d94fd88f    ..O.    DCD    3645888655
        0x00004464:    dacfda0f    ....    DCD    3671054863
        0x00004468:    dc51db90    ..Q.    DCD    3696352144
        0x0000446c:    ddd5dd13    ....    DCD    3721780499
        0x00004470:    df59de97    ..Y.    DCD    3747208855
        0x00004474:    e0dfe01c    ....    DCD    3772768284
        0x00004478:    e266e1a2    ..f.    DCD    3798393250
        0x0000447c:    e3eee32a    *...    DCD    3824083754
        0x00004480:    e577e4b3    ..w.    DCD    3849839795
        0x00004484:    e702e63c    <...    DCD    3875726908
        0x00004488:    e88de7c7    ....    DCD    3901614023
        0x0000448c:    ea19e953    S...    DCD    3927566675
        0x00004490:    eba6eadf    ....    DCD    3953584863
        0x00004494:    ed34ec6d    m.4.    DCD    3979668589
        0x00004498:    eec2edfb    ....    DCD    4005752315
        0x0000449c:    f051ef8a    ..Q.    DCD    4031901578
        0x000044a0:    f1e1f119    ....    DCD    4058116377
        0x000044a4:    f372f2a9    ..r.    DCD    4084396713
        0x000044a8:    f502f43a    :...    DCD    4110611514
        0x000044ac:    f694f5cb    ....    DCD    4136957387
        0x000044b0:    f825f75c    \.%.    DCD    4163237724
        0x000044b4:    f9b7f8ee    ....    DCD    4189583598
        0x000044b8:    fb49fa80    ..I.    DCD    4215929472
        0x000044bc:    fcdcfc12    ....    DCD    4242340882
        0x000044c0:    fe6efda5    ..n.    DCD    4268686757
        0x000044c4:    0000ff37    7...    DCD    65335
    Region$$Table$$Base
        0x000044c8:    000044e8    .D..    DCD    17640
        0x000044cc:    20000000    ...     DCD    536870912
        0x000044d0:    00000068    h...    DCD    104
        0x000044d4:    00003234    42..    DCD    12852
        0x000044d8:    00004550    PE..    DCD    17744
        0x000044dc:    20000068    h..     DCD    536871016
        0x000044e0:    000005c8    ....    DCD    1480
        0x000044e4:    00003244    D2..    DCD    12868
    Region$$Table$$Limit

** Section #2 'ER_RW' (SHT_PROGBITS) [SHF_ALLOC + SHF_WRITE]
    Size   : 104 bytes (alignment 4)
    Address: 0x20000000


** Section #3 'ER_ZI' (SHT_NOBITS) [SHF_ALLOC + SHF_WRITE]
    Size   : 1480 bytes (alignment 8)
    Address: 0x20000068


** Section #4 '.debug_abbrev' (SHT_PROGBITS)
    Size   : 5766 bytes


** Section #5 '.debug_frame' (SHT_PROGBITS)
    Size   : 4692 bytes


** Section #6 '.debug_info' (SHT_PROGBITS)
    Size   : 37929 bytes


** Section #7 '.debug_line' (SHT_PROGBITS)
    Size   : 24572 bytes


** Section #8 '.debug_loc' (SHT_PROGBITS)
    Size   : 14412 bytes


** Section #9 '.debug_macinfo' (SHT_PROGBITS)
    Size   : 2636 bytes


** Section #10 '.debug_pubnames' (SHT_PROGBITS)
    Size   : 723 bytes


** Section #11 '.debug_ranges' (SHT_PROGBITS)
    Size   : 1624 bytes


** Section #12 '.debug_str' (SHT_PROGBITS)
    Size   : 21427 bytes


** Section #13 '.symtab' (SHT_SYMTAB)
    Size   : 12640 bytes (alignment 4)
    String table #14 '.strtab'
    Last local symbol no. 555


** Section #14 '.strtab' (SHT_STRTAB)
    Size   : 8228 bytes


** Section #15 '.note' (SHT_NOTE)
    Size   : 28 bytes (alignment 4)


** Section #16 '.comment' (SHT_PROGBITS)
    Size   : 3292 bytes


** Section #17 '.shstrtab' (SHT_STRTAB)
    Size   : 180 bytes


